0001   0000            
0002   0000                                    .FILE     E:\DROPBOX\NOISEPLAYER\AVR\NoisePlayer.pas
0003   0000            
0004   0000                                    ; Compiled by E-LAB AVRco PASCAL Compiler Rev 4.99.63
0005   0000                                    ; Version     : Profi
0006   0000                                    ;
0007   0000                                    ; Licenced to : Redaktion CT
0008   0000                                    ;
0009   0000                                    ; (c)E-LAB Computers, Grombacherstr. 27  e-mail info@e-lab.de
0010   0000                                    ; D-74906 Bad Rappenau  Tel. 07268/9124-0 Fax. 07268/9124-24
0011   0000                                    ; ++++++++++++++++++++++++++++++++++++++++++++++++++++++++++
0012   0000                                    ; Source File : NoisePlayer.pas
0013   0000                                    ; Compiled    : 24. Januar 2012  10:26:53
0014   0000                                    ; ++++++++++++++++++++++++++++++++++++++++++++++++++++++++++
0015   0000            
0016   0000                                    .LINE     16
0017   0000                                    .OPTI_QUICK
0018   0000                                    .MEDIUM
0019   0000                                    .ROMEND         03FFFh;
0020   0000            
0021   0000                                    ; ++++++++++++++++++++++++++++++++++++++++++++++++++++++++++
0022   0000                                    ; Constants and Variables definition
0023   0000                                    ; ++++++++++++++++++++++++++++++++++++++++++++++++++++++++++
0024   0000            
0025   0000            
0026   0000                                    ; === Internal used memory and constants ===
0027   0000            
0028   0000            FALSE                   .EQU    000h            ; const 
0029   0000            TRUE                    .EQU    0FFh            ; const 
0030   0000            NIL                     .EQU    000h            ; const 
0031   0000            PI                      .EQU    000h            ; const 
0032   0000            COMPILERREV             .EQU    1F3h            ; const 
0033   0000            COMPILERBUILD_Y         .EQU    00Bh            ; const 
0034   0000            COMPILERBUILD_M         .EQU    00Bh            ; const 
0035   0000            COMPILERBUILD_D         .EQU    01Bh            ; const 
0036   0000            COMPILEYEAR             .EQU    00Ch            ; const 
0037   0000            COMPILEMONTH            .EQU    001h            ; const 
0038   0000            COMPILEDAY              .EQU    018h            ; const 
0039   0000            COMPILEHOUR             .EQU    00Ah            ; const 
0040   0000            COMPILEMINUTE           .EQU    01Ah            ; const 
0041   0000            PROJECTBUILD            .EQU    001h            ; const 
0042   0000            OPTIMISERREV            .EQU    000h            ; const 
0043   0000            OPTIMISERBUILD          .EQU    000h            ; const 
0044   0000            INTFLAG                 .EQU    007h            ; const 
0045   0000            _EEPROM                 .EQU    006h            ; const 
0046   0000            _SIGN                   .EQU    005h            ; const 
0047   0000            _WAITLCD                .EQU    004h            ; const 
0048   0000            _STRCONST               .EQU    004h            ; const 
0049   0000            _DEVICE                 .EQU    003h            ; const 
0050   0000            _NEGATIVE               .EQU    002h            ; const 
0051   0000            _ERRFLAG                .EQU    001h            ; const 
0052   0000            _I2C2BYTE               .EQU    000h            ; const 
0053   0000            _TOGGLE300              .EQU    000h            ; const 
0054   0000            _LCDLOWER               .EQU    001h            ; const 
0055   0000            _DSP7RFR                .EQU    002h            ; const 
0056   0000            _PWRSAVFLG              .EQU    003h            ; const 
0057   0000            _STEPCW                 .EQU    004h            ; const 
0058   0000            _F64StrInt              .EQU    004h            ; const 
0059   0000            _STEPDEST               .EQU    005h            ; const 
0060   0000            _F64StrFrac             .EQU    005h            ; const 
0061   0000            _FREQCNTFLAG            .EQU    006h            ; const 
0062   0000            _AUTOACK                .EQU    007h            ; const 
0063   0000            _ACCGLO                 .EQU    000h            ; var Data   byte
0064   0000            _ACCGHI                 .EQU    001h            ; var Data   byte
0065   0000            _ACCHLO                 .EQU    002h            ; var Data   byte
0066   0000            _ACCHHI                 .EQU    003h            ; var Data   byte
0067   0000            _ACCB                   .EQU    010h            ; var Data   byte
0068   0000            _ACCA                   .EQU    011h            ; var Data   byte
0069   0000            _ACCALO                 .EQU    012h            ; var Data   byte
0070   0000            _ACCAHI                 .EQU    013h            ; var Data   byte
0071   0000            _ACCDLO                 .EQU    014h            ; var Data   byte
0072   0000            _ACCDHI                 .EQU    015h            ; var Data   byte
0073   0000            _ACCELO                 .EQU    016h            ; var Data   byte
0074   0000            _ACCEHI                 .EQU    017h            ; var Data   byte
0075   0000            _ACCFLO                 .EQU    018h            ; var Data   byte
0076   0000            _ACCFHI                 .EQU    019h            ; var Data   byte
0077   0000            _ACCBLO                 .EQU    01Ah            ; var Data   byte
0078   0000            _ACCBHI                 .EQU    01Bh            ; var Data   byte
0079   0000            _FRAMEPTR               .EQU    01Ch            ; var Data   byte
0080   0000            _FPTRHI                 .EQU    01Dh            ; var Data   byte
0081   0000            _ACCCLO                 .EQU    01Eh            ; var Data   byte
0082   0000            _ACCCHI                 .EQU    01Fh            ; var Data   byte
0083   0000            FLAGS                   .EQU    004h            ; var Data   byte
0084   0000            FLAGS2                  .EQU    005h            ; var Data   byte
0085   0000            _SYSTFLAGS              .EQU    006h            ; var Data   byte
0086   0000            SYSTICK                 .EQU    002h            ; const 
0087   0000            PROCCLOCK               .EQU    0F42400h        ; const 
0088   0000            DECIMALSEP              .EQU    02Eh            ; const 
0089   0000            CPU_ID                  .EQU    1E9406h         ; const 
0090   0000            Flash_Page_Size         .EQU    080h            ; const 
0091   0000            ROMconstPage            .EQU    0FFFFFFFFFFFFFFFFh          ; const 
0092   0000            STACKSIZE               .EQU    040h            ; const 
0093   0000            FRAMESIZE               .EQU    040h            ; const 
0094   0000            PWMPORT1A               .EQU    088h            ; var iData  word
0095   0000            SERPORT                 .EQU    0E100h          ; const 
0096   0000            UDR1                    .EQU    0C6h            ; var iData  byte
0097   0000            UBRR1H                  .EQU    0C5h            ; var iData  byte
0098   0000            UBRRH                   .EQU    0C5h            ; var iData  byte
0099   0000            UBRR1                   .EQU    0C4h            ; var iData  byte
0100   0000            UBRRL                   .EQU    0C4h            ; var iData  byte
0101   0000            UCSRC                   .EQU    0C2h            ; var iData  byte
0102   0000            UCSR0C                  .EQU    0C2h            ; var iData  byte
0103   0000            UCR1                    .EQU    0C1h            ; var iData  byte
0104   0000            UCSRB                   .EQU    0C1h            ; var iData  byte
0105   0000            UCSR0B                  .EQU    0C1h            ; var iData  byte
0106   0000            USR1                    .EQU    0C0h            ; var iData  byte
0107   0000            UCSRA                   .EQU    0C0h            ; var iData  byte
0108   0000            UCSR0A                  .EQU    0C0h            ; var iData  byte
0109   0000            TWAMR                   .EQU    0BDh            ; var iData  byte
0110   0000            TWCR                    .EQU    0BCh            ; var iData  byte
0111   0000            TWDR                    .EQU    0BBh            ; var iData  byte
0112   0000            TWAR                    .EQU    0BAh            ; var iData  byte
0113   0000            TWSR                    .EQU    0B9h            ; var iData  byte
0114   0000            TWBR                    .EQU    0B8h            ; var iData  byte
0115   0000            ASSR                    .EQU    0B6h            ; var iData  byte
0116   0000            OCR2B                   .EQU    0B4h            ; var iData  byte
0117   0000            OCR2A                   .EQU    0B3h            ; var iData  byte
0118   0000            OCR2                    .EQU    0B3h            ; var iData  byte
0119   0000            TCNT2                   .EQU    0B2h            ; var iData  byte
0120   0000            TCCR2B                  .EQU    0B1h            ; var iData  byte
0121   0000            TCCR2A                  .EQU    0B0h            ; var iData  byte
0122   0000            TCCR2                   .EQU    0B1h            ; var iData  byte
0123   0000            OCR1BH                  .EQU    08Bh            ; var iData  byte
0124   0000            OCR1BL                  .EQU    08Ah            ; var iData  byte
0125   0000            OCR1AH                  .EQU    089h            ; var iData  byte
0126   0000            OCR1AL                  .EQU    088h            ; var iData  byte
0127   0000            ICR1H                   .EQU    087h            ; var iData  byte
0128   0000            ICR1L                   .EQU    086h            ; var iData  byte
0129   0000            TCNT1H                  .EQU    085h            ; var iData  byte
0130   0000            TCNT1L                  .EQU    084h            ; var iData  byte
0131   0000            TCCR1C                  .EQU    082h            ; var iData  byte
0132   0000            TCCR1B                  .EQU    081h            ; var iData  byte
0133   0000            TCCR1A                  .EQU    080h            ; var iData  byte
0134   0000            DIDR1                   .EQU    07Fh            ; var iData  byte
0135   0000            DIDR0                   .EQU    07Eh            ; var iData  byte
0136   0000            ADMUX                   .EQU    07Ch            ; var iData  byte
0137   0000            ADCSR                   .EQU    07Ah            ; var iData  byte
0138   0000            ADCSRB                  .EQU    07Bh            ; var iData  byte
0139   0000            ADCSRA                  .EQU    07Ah            ; var iData  byte
0140   0000            ADCH                    .EQU    079h            ; var iData  byte
0141   0000            ADCL                    .EQU    078h            ; var iData  byte
0142   0000            TIMSK2                  .EQU    070h            ; var iData  byte
0143   0000            TIMSK1                  .EQU    06Fh            ; var iData  byte
0144   0000            TIMSK0                  .EQU    06Eh            ; var iData  byte
0145   0000            PCMSK2                  .EQU    06Dh            ; var iData  byte
0146   0000            PCMSK1                  .EQU    06Ch            ; var iData  byte
0147   0000            PCMSK0                  .EQU    06Bh            ; var iData  byte
0148   0000            EICRA                   .EQU    069h            ; var iData  byte
0149   0000            PCICR                   .EQU    068h            ; var iData  byte
0150   0000            OSCCAL                  .EQU    066h            ; var iData  byte
0151   0000            PRR                     .EQU    064h            ; var iData  byte
0152   0000            CLKPR                   .EQU    061h            ; var iData  byte
0153   0000            WDTCR                   .EQU    060h            ; var iData  byte
0154   0000            SREG                    .EQU    05Fh            ; var pData  byte
0155   0000            SPH                     .EQU    05Eh            ; var pData  byte
0156   0000            SPL                     .EQU    05Dh            ; var pData  byte
0157   0000            SPMCR                   .EQU    057h            ; var pData  byte
0158   0000            SPMCSR                  .EQU    057h            ; var pData  byte
0159   0000            MCUCR                   .EQU    055h            ; var pData  byte
0160   0000            MCUCSR                  .EQU    054h            ; var pData  byte
0161   0000            MCUSR                   .EQU    054h            ; var pData  byte
0162   0000            SMCR                    .EQU    053h            ; var pData  byte
0163   0000            MONDR                   .EQU    051h            ; var pData  byte
0164   0000            ACSR                    .EQU    050h            ; var pData  byte
0165   0000            SPDR                    .EQU    04Eh            ; var pData  byte
0166   0000            SPSR                    .EQU    04Dh            ; var pData  byte
0167   0000            SPCR                    .EQU    04Ch            ; var pData  byte
0168   0000            GPIOR2                  .EQU    04Bh            ; var pData  byte
0169   0000            GPIOR1                  .EQU    04Ah            ; var pData  byte
0170   0000            OCR0B                   .EQU    048h            ; var pData  byte
0171   0000            OCR0A                   .EQU    047h            ; var pData  byte
0172   0000            TCNT0                   .EQU    046h            ; var pData  byte
0173   0000            TCCR0B                  .EQU    045h            ; var pData  byte
0174   0000            TCCR0A                  .EQU    044h            ; var pData  byte
0175   0000            TCCR0                   .EQU    045h            ; var pData  byte
0176   0000            GTCCR                   .EQU    043h            ; var pData  byte
0177   0000            EEARH                   .EQU    042h            ; var pData  byte
0178   0000            EEARL                   .EQU    041h            ; var pData  byte
0179   0000            EEDR                    .EQU    040h            ; var pData  byte
0180   0000            EECR                    .EQU    03Fh            ; var pData  byte
0181   0000            GPIOR0                  .EQU    03Eh            ; var pData  byte
0182   0000            GIMSK                   .EQU    03Dh            ; var pData  byte
0183   0000            EIMSK                   .EQU    03Dh            ; var pData  byte
0184   0000            GIFR                    .EQU    03Ch            ; var pData  byte
0185   0000            EIFR                    .EQU    03Ch            ; var pData  byte
0186   0000            PCIFR                   .EQU    03Bh            ; var pData  byte
0187   0000            TIFR2                   .EQU    037h            ; var pData  byte
0188   0000            TIFR1                   .EQU    036h            ; var pData  byte
0189   0000            TIFR0                   .EQU    035h            ; var pData  byte
0190   0000            PORTD                   .EQU    02Bh            ; var pData  byte
0191   0000            DDRD                    .EQU    02Ah            ; var pData  byte
0192   0000            PIND                    .EQU    029h            ; var pData  byte
0193   0000            PORTC                   .EQU    028h            ; var pData  byte
0194   0000            DDRC                    .EQU    027h            ; var pData  byte
0195   0000            PINC                    .EQU    026h            ; var pData  byte
0196   0000            PORTB                   .EQU    025h            ; var pData  byte
0197   0000            DDRB                    .EQU    024h            ; var pData  byte
0198   0000            PINB                    .EQU    023h            ; var pData  byte
0199   0000            OCR1B                   .EQU    08Ah            ; var iData  word
0200   0000            OCR1A                   .EQU    088h            ; var iData  word
0201   0000            ICR1                    .EQU    086h            ; var iData  word
0202   0000            TCNT1                   .EQU    084h            ; var iData  word
0203   0000            ADC                     .EQU    078h            ; var iData  word
0204   0000            EEAR                    .EQU    041h            ; var pData  word
0205   0000            _iDataStart             .EQU    100h            ; const 
0206   0000            _iDataEnd               .EQU    4FFh            ; const 
0207   0000            _EEpromStart            .EQU    000h            ; const 
0208   0000            _EEpromEnd              .EQU    1FFh            ; const 
0209   0000            _FlashStart             .EQU    000h            ; const 
0210   0000            _FlashEnd               .EQU    3FFFh           ; const 
0211   0000            parNone                 .EQU    000h            ; const 
0212   0000            parEven                 .EQU    001h            ; const 
0213   0000            parOdd                  .EQU    002h            ; const 
0214   0000            DataBit5                .EQU    000h            ; const 
0215   0000            DataBit6                .EQU    001h            ; const 
0216   0000            DataBit7                .EQU    002h            ; const 
0217   0000            DataBit8                .EQU    003h            ; const 
0218   0000            StopBit1                .EQU    000h            ; const 
0219   0000            StopBit2                .EQU    001h            ; const 
0220   0000            _RXTIMEOUT              .EQU    101h            ; var iData  byte
0221   0000            _RXINP                  .EQU    102h            ; var iData  byte
0222   0000            _RXOUTP                 .EQU    103h            ; var iData  byte
0223   0000            _RXCOUNT                .EQU    104h            ; var iData  byte
0224   0000            _RXBUFF                 .EQU    105h            ; var iData  byte
0225   0000            _TXINP                  .EQU    125h            ; var iData  byte
0226   0000            _TXOUTP                 .EQU    126h            ; var iData  byte
0227   0000            _TXCOUNT                .EQU    127h            ; var iData  byte
0228   0000            _TXBUFF                 .EQU    128h            ; var iData  byte
0229   0000            SysTickTime             .EQU    100h            ; var iData  byte
0230   0000            EEPROM                  .EQU    000h            ; var EEprom array
0231   0000            
0232   0000            
0233   0000            
0234   0000                                    .RESET     000000h
0235   0000                                    .ORG       000000h, CODE_START
0236   0034                                    .STARTCODE 000068h
0237   0034            
0238   0034                                    .UNIT     NoisePlayer
0239   0034            
0240   0034                                    .XDATASTART -1
0241   0034            
0242   0034            
0243   0034                                    ; ============ user definitions module: NoisePlayer ============
0244   0034            
0245   0034            NoisePlayer.LEDoutPort  .EQU    02Bh            ; const byte     43
0246   0034            NoisePlayer.DFport      .EQU    025h            ; const byte     37
0247   0034            NoisePlayer.PWMport     .EQU    023h            ; const byte     35
0248   0034            NoisePlayer.b_SCK       .EQU    005h            ; const byte     5
0249   0034            NoisePlayer.b_MISO      .EQU    004h            ; const byte     4
0250   0034            NoisePlayer.b_MOSI      .EQU    003h            ; const byte     3
0251   0034            NoisePlayer.b_SS        .EQU    002h            ; const byte     2
0252   0034            NoisePlayer.b_DataFlash .EQU    000h            ; const byte     0
0253   0034            ;ErrStrArr               .EQU    ; const Array
0254   0034            NoisePlayer.ErrSubCh    .EQU    0FFh            ; const integer  255
0255   0034            ;Vers1Str                .EQU    '1.00 [NOISEPLAY '; const String
0256   0034            ;CmdStrArr               .EQU    ; const Array
0257   0034            ;Cmd2SubChArr            .EQU    ; const Array
0258   0034            NoisePlayer.cmdAnzahl   .EQU    00Eh            ; const byte     14
0259   0034            NoisePlayer.cmdErr      .EQU    00Fh            ; const byte     15
0260   0034            NoisePlayer.high        .EQU    0FFh            ; const boolean  true
0261   0034            NoisePlayer.low         .EQU    000h            ; const boolean  false
0262   0034            NoisePlayer.EEWaveStartArray  .EQU              00000h      ; var EEprom array
0263   0034                                    .SYM      EEWaveStartArray, 00000h, 04035h, 3
0264   0034            NoisePlayer.EEWaveLoopArray   .EQU              00020h      ; var EEprom array
0265   0034                                    .SYM      EEWaveLoopArray, 00020h, 04035h, 3
0266   0034            NoisePlayer.EEWaveEndArray    .EQU              00040h      ; var EEprom array
0267   0034                                    .SYM      EEWaveEndArray, 00040h, 04035h, 3
0268   0034                                    .SYM      h, 00007h, 0000Dh, 3
0269   0034            NoisePlayer.h           .EQU    007h            ; var Data   byte
0270   0034                                    .SYM      i, 00008h, 0000Dh, 3
0271   0034            NoisePlayer.i           .EQU    008h            ; var Data   byte
0272   0034                                    .SYM      m, 00009h, 0000Dh, 3
0273   0034            NoisePlayer.m           .EQU    009h            ; var Data   byte
0274   0034                                    .SYM      sw_debounce, 0000Ah, 0000Dh, 3
0275   0034            NoisePlayer.sw_debounce .EQU    00Ah            ; var Data   byte
0276   0034                                    .SYM      DF_send, 0000Bh, 0000Dh, 3
0277   0034            NoisePlayer.DF_send     .EQU    00Bh            ; var Data   byte
0278   0034                                    .SYM      DF_receive, 0000Ch, 0000Dh, 3
0279   0034            NoisePlayer.DF_receive  .EQU    00Ch            ; var Data   byte
0280   0034                                    .SYM      Switchport, 00148h, 0000Dh, 3
0281   0034            NoisePlayer.Switchport  .EQU    148h            ; var iData  byte
0282   0034                                    .SYM      oldSwitchport, 00149h, 0000Dh, 3
0283   0034            NoisePlayer.oldSwitchport     .EQU              149h        ; var iData  byte
0284   0034                                    .SYM      wavesel, 0014Ah, 0000Dh, 3
0285   0034            NoisePlayer.wavesel     .EQU    14Ah            ; var iData  byte
0286   0034                                    .SYM      startcomplete, 0014Bh, 00003h, 3
0287   0034            NoisePlayer.startcomplete     .EQU              14Bh        ; var iData  boolean
0288   0034                                    .SYM      PWMenabled, 0014Ch, 00003h, 3
0289   0034            NoisePlayer.PWMenabled  .EQU    14Ch            ; var iData  boolean
0290   0034                                    .SYM      PWMslower, 0014Dh, 00003h, 3
0291   0034            NoisePlayer.PWMslower   .EQU    14Dh            ; var iData  boolean
0292   0034                                    .SYM      wasrunning, 0014Eh, 00003h, 3
0293   0034            NoisePlayer.wasrunning  .EQU    14Eh            ; var iData  boolean
0294   0034                                    .SYM      CmdWhich, 0014Fh, 0000Dh, 3
0295   0034            NoisePlayer.CmdWhich    .EQU    14Fh            ; var iData  byte
0296   0034            NoisePlayer.CmdStr      .EQU    150h            ; var iData  string
0297   0034                                    .SYM      CmdStr, 00150h, 0303Ch, 3
0298   0034                                    .SYM      SubCh, 00154h, 00004h, 3
0299   0034            NoisePlayer.SubCh       .EQU    154h            ; var iData  integer
0300   0034                                    .SYM      CurrentCh, 00156h, 0000Dh, 3
0301   0034            NoisePlayer.CurrentCh   .EQU    156h            ; var iData  byte
0302   0034                                    .SYM      OmniFlag, 00157h, 00003h, 3
0303   0034            NoisePlayer.OmniFlag    .EQU    157h            ; var iData  boolean
0304   0034                                    .SYM      verbose, 00158h, 00003h, 3
0305   0034            NoisePlayer.verbose     .EQU    158h            ; var iData  boolean
0306   0034                                    .SYM      ParamInt, 00159h, 00004h, 3
0307   0034            NoisePlayer.ParamInt    .EQU    159h            ; var iData  integer
0308   0034                                    .SYM      ParamAlpha, 0015Bh, 00003h, 3
0309   0034            NoisePlayer.ParamAlpha  .EQU    15Bh            ; var iData  boolean
0310   0034                                    .SYM      ParamLong, 0015Ch, 00005h, 3
0311   0034            NoisePlayer.ParamLong   .EQU    15Ch            ; var iData  longint
0312   0034                                    .SYM      ParamLong0, 0015Ch, 0000Dh, 3
0313   0034            NoisePlayer.ParamLong0  .EQU    15Ch            ; var iData  byte
0314   0034                                    .SYM      ParamLong1, 0015Dh, 0000Dh, 3
0315   0034            NoisePlayer.ParamLong1  .EQU    15Dh            ; var iData  byte
0316   0034                                    .SYM      ParamLong2, 0015Eh, 0000Dh, 3
0317   0034            NoisePlayer.ParamLong2  .EQU    15Eh            ; var iData  byte
0318   0034                                    .SYM      ParamLong3, 0015Fh, 0000Dh, 3
0319   0034            NoisePlayer.ParamLong3  .EQU    15Fh            ; var iData  byte
0320   0034                                    .SYM      Paramword, 00160h, 0000Eh, 3
0321   0034            NoisePlayer.Paramword   .EQU    160h            ; var iData  word
0322   0034                                    .SYM      Parambyte, 00162h, 0000Dh, 3
0323   0034            NoisePlayer.Parambyte   .EQU    162h            ; var iData  byte
0324   0034                                    .SYM      BinaryMode, 00163h, 00003h, 3
0325   0034            NoisePlayer.BinaryMode  .EQU    163h            ; var iData  boolean
0326   0034                                    .SYM      MainCh, 00164h, 0000Dh, 3
0327   0034            NoisePlayer.MainCh      .EQU    164h            ; var iData  byte
0328   0034            NoisePlayer.SerInpStr   .EQU    165h            ; var iData  string
0329   0034                                    .SYM      SerInpStr, 00165h, 0303Ch, 3
0330   0034                                    .SYM      SerInpPtr, 00185h, 0000Dh, 3
0331   0034            NoisePlayer.SerInpPtr   .EQU    185h            ; var iData  byte
0332   0034                                    .SYM      ParsePtr, 00186h, 0000Dh, 3
0333   0034            NoisePlayer.ParsePtr    .EQU    186h            ; var iData  byte
0334   0034                                    .SYM      DF_long, 00187h, 00005h, 3
0335   0034            NoisePlayer.DF_long     .EQU    187h            ; var iData  longint
0336   0034                                    .SYM      DF_long0, 00187h, 0000Dh, 3
0337   0034            NoisePlayer.DF_long0    .EQU    187h            ; var iData  byte
0338   0034                                    .SYM      DF_long1, 00188h, 0000Dh, 3
0339   0034            NoisePlayer.DF_long1    .EQU    188h            ; var iData  byte
0340   0034                                    .SYM      DF_long2, 00189h, 0000Dh, 3
0341   0034            NoisePlayer.DF_long2    .EQU    189h            ; var iData  byte
0342   0034                                    .SYM      DF_long3, 0018Ah, 0000Dh, 3
0343   0034            NoisePlayer.DF_long3    .EQU    18Ah            ; var iData  byte
0344   0034                                    .SYM      PWMbit, 0018Bh, 00003h, 3
0345   0034            NoisePlayer.PWMbit      .EQU    18Bh            ; var iData  boolean
0346   0034            NoisePlayer.ParamStr    .EQU    18Ch            ; var iData  string
0347   0034                                    .SYM      ParamStr, 0018Ch, 0303Ch, 3
0348   0034                                    .SYM      isInteger, 001B5h, 00003h, 3
0349   0034            NoisePlayer.isInteger   .EQU    1B5h            ; var iData  boolean
0350   0034                                    .SYM      Request, 001B6h, 00003h, 3
0351   0034            NoisePlayer.Request     .EQU    1B6h            ; var iData  boolean
0352   0034                                    .SYM      Status, 001B7h, 0000Dh, 3
0353   0034            NoisePlayer.Status      .EQU    1B7h            ; var iData  byte
0354   0034                                    .SYM      FaultFlags, 001B8h, 0000Dh, 3
0355   0034            NoisePlayer.FaultFlags  .EQU    1B8h            ; var iData  byte
0356   0034                                    .SYM      ErrCount, 001B9h, 00004h, 3
0357   0034            NoisePlayer.ErrCount    .EQU    1B9h            ; var iData  integer
0358   0034                                    .SYM      ErrFlag, 001BBh, 00003h, 3
0359   0034            NoisePlayer.ErrFlag     .EQU    1BBh            ; var iData  boolean
0360   0034                                    .SYM      byteCount, 001BCh, 00005h, 3
0361   0034            NoisePlayer.byteCount   .EQU    1BCh            ; var iData  longint
0362   0034                                    .SYM      SoundStart, 001C0h, 00005h, 3
0363   0034            NoisePlayer.SoundStart  .EQU    1C0h            ; var iData  longint
0364   0034                                    .SYM      WaveEnd, 001C4h, 00005h, 3
0365   0034            NoisePlayer.WaveEnd     .EQU    1C4h            ; var iData  longint
0366   0034                                    .SYM      WaveLoop, 001C8h, 00005h, 3
0367   0034            NoisePlayer.WaveLoop    .EQU    1C8h            ; var iData  longint
0368   0034                                    .SYM      WaveStartArray, 001CCh, 00035h, 3
0369   0034            NoisePlayer.WaveStartArray    .EQU              1CCh        ; var iData  array
0370   0034                                    .SYM      WaveLoopArray, 001ECh, 00035h, 3
0371   0034            NoisePlayer.WaveLoopArray     .EQU              1ECh        ; var iData  array
0372   0034                                    .SYM      WaveEndArray, 0020Ch, 00035h, 3
0373   0034            NoisePlayer.WaveEndArray      .EQU              20Ch        ; var iData  array
0374   0034                                    .SYM      VerifyTable, 0022Ch, 0003Dh, 3
0375   0034            NoisePlayer.VerifyTable .EQU    22Ch            ; var iData  array
0376   0034                                    .SYM      BlockTable, 0032Ch, 0003Dh, 3
0377   0034            NoisePlayer.BlockTable  .EQU    32Ch            ; var iData  array
0378   0034                                    .SYM      Blockarray2, 0032Ch, 0003Eh, 3
0379   0034            NoisePlayer.Blockarray2 .EQU    32Ch            ; var iData  array
0380   0034                                    .SYM      Blockarray4, 0032Ch, 00035h, 3
0381   0034            NoisePlayer.Blockarray4 .EQU    32Ch            ; var iData  array
0382   0034            NoisePlayer.BlockStr    .EQU    32Ch            ; var iData  string
0383   0034                                    .SYM      BlockStr, 0032Ch, 0303Ch, 3
0384   0034                                    .FUNC     InitPorts, 000D8h, 00020h
0385   0034            NoisePlayer.InitPorts:
0386   0034                                    .RETURNS   0
0387   0034                                    .BLOCK    217
0388   0034                                    .LINE     218
0389   0034       E010                         LDI       _ACCA, 000h
0390   0035       B91B                         OUT       PORTD, _ACCA
0391   0036                                    .LINE     219
0392   0036       E11C                         LDI       _ACCA, 01Ch
0393   0037       B91A                         OUT       DDRD, _ACCA
0394   0038                                    .LINE     220
0395   0038       E21F                         LDI       _ACCA, 02Fh
0396   0039       B915                         OUT       PORTB, _ACCA
0397   003A                                    .LINE     221
0398   003A       E31F                         LDI       _ACCA, 03Fh
0399   003B       B914                         OUT       DDRB, _ACCA
0400   003C                                    .LINE     222
0401   003C       E31F                         LDI       _ACCA, 03Fh
0402   003D       B918                         OUT       PORTC, _ACCA
0403   003E                                    .LINE     223
0404   003E       E010                         LDI       _ACCA, 000h
0405   003F       B917                         OUT       DDRC, _ACCA
0406   0040                                    .LINE     225
0407   0040       E51C                         LDI       _ACCA, 05Ch
0408   0041       BD1C                         OUT       SPCR, _ACCA
0409   0042                                    .LINE     226
0410   0042       E010                         LDI       _ACCA, 000h
0411   0043       BD1D                         OUT       SPSR, _ACCA
0412   0044                                    .ENDBLOCK 227
0413   0044            NoisePlayer.InitPorts_X:
0414   0044                                    .LINE     227
0415   0000                                    .BRANCH   19
0416   0044       9508                         RET
0417   0045                                    .ENDFUNC  227
0418   0045            
0419   0045            
0420   0045                                    .FILE     NP_hwasm.pas
0421   0045                                    .FUNC     DF_sr, 00005h, 00020h
0422   0045            NoisePlayer.DF_sr:
0423   0045                                    .RETURNS   0
0424   0045                                    .BLOCK    7
0425   0045                                    .ASM
0426   0045                                    .LINE     9
0427   0045   9110000B                         lds    _ACCA, NoisePlayer.DF_send
0428   0047                                    .LINE     10
0429   0047       BD1E                         out    SPDR, _ACCA    ; SPI von FAT16-Treiber eingeschaltet!
0430   0048                                    DF_waitReg:
0431   0048                                    .LINE     12
0432   0048       B51D                         in     _ACCA, SPSR    ; Flag hier über Akku - andere Adresse als mega8/16/32!
0433   0049                                    .LINE     13
0434   0049       FF17                         sbrs   _ACCA, 7
0435   004A                                    .LINE     14
0436   004A       CFFD                         rjmp   DF_waitReg     ; auf Ende des SPI-Transfer warten
0437   004B                                    .LINE     15
0438   004B       B51E                         in     _ACCA, SPDR
0439   004C                                    .LINE     16
0440   004C   9310000C                         sts    NoisePlayer.DF_receive, _ACCA  ; Lesewert zurück ins Datenbyte
0441   004E                                    .endasm
0442   004E                                    .ENDBLOCK 18
0443   004E            NoisePlayer.DF_sr_X:
0444   004E                                    .LINE     18
0445   0000                                    .BRANCH   19
0446   004E       9508                         RET
0447   004F                                    .ENDFUNC  18
0448   004F            
0449   004F                                    .FUNC     DF_status, 00014h, 00020h
0450   004F            NoisePlayer.DF_status:
0451   004F                                    .RETURNS   1
0452   004F                                    .BLOCK    22
0453   004F                                    .LINE     23
0454   004F       9828                         CBI       00025h, 000h
0455   0050                                    .LINE     24
0456   0050       E015                         LDI       _ACCA, 005h
0457   0051       2EB1                         MOV       NOISEPLAYER.DF_SEND, _ACCA
0458   0052                                    .LINE     25
0459   0045                                    .BRANCH   17,NoisePlayer.DF_SR
0460   0052   940E0045                         CALL      NoisePlayer.DF_SR
0461   0054            
0462   0054                                    .LINE     26
0463   0045                                    .BRANCH   17,NoisePlayer.DF_SR
0464   0054   940E0045                         CALL      NoisePlayer.DF_SR
0465   0056            
0466   0056                                    .LINE     27
0467   0056       9A28                         SBI       00025h, 000h
0468   0057                                    .LINE     28
0469   0057       2D1C                         MOV       _ACCA, NoisePlayer.DF_receive
0470   0058                                    .ENDBLOCK 29
0471   0058            NoisePlayer.DF_status_X:
0472   0058                                    .LINE     29
0473   0000                                    .BRANCH   19
0474   0058       9508                         RET
0475   0059                                    .ENDFUNC  29
0476   0059            
0477   0059                                    .FUNC     DF_busy, 0001Fh, 00020h
0478   0059            NoisePlayer.DF_busy:
0479   0059                                    .RETURNS   0
0480   0059                                    .BLOCK    33
0481   0059                                    .LINE     34
0482   0059       9828                         CBI       00025h, 000h
0483   005A                                    .LINE     35
0484   005A       E015                         LDI       _ACCA, 005h
0485   005B       2EB1                         MOV       NOISEPLAYER.DF_SEND, _ACCA
0486   005C                                    .LINE     36
0487   0045                                    .BRANCH   17,NoisePlayer.DF_SR
0488   005C   940E0045                         CALL      NoisePlayer.DF_SR
0489   005E            
0490   005E            NoisePlayer._L0000:
0491   005E                                    .BLOCK    37
0492   005E                                    .LINE     38
0493   0045                                    .BRANCH   17,NoisePlayer.DF_SR
0494   005E   940E0045                         CALL      NoisePlayer.DF_SR
0495   0060            
0496   0060                                    .ENDBLOCK 39
0497   0060                                    .LINE     39
0498   0060            NoisePlayer._L0001:
0499   0060       2D1C                         MOV       _ACCA, NoisePlayer.DF_receive
0500   0061       7011                         ANDI      _ACCA, 001h
0501   0062       3010                         CPI       _ACCA, 000h
0502   0063       E010                         LDI       _ACCA, 0h
0503   0064       F409                         BRNE      NoisePlayer._L0003
0504   0065       EF1F                         SER       _ACCA
0505   0066            NoisePlayer._L0003:
0506   0066       2311                         TST       _ACCA
0507   006A                                    .BRANCH   4,NoisePlayer._L0004
0508   0067       F411                         BRNE      NoisePlayer._L0004
0509   005E                                    .BRANCH   20,NoisePlayer._L0000
0510   0068   940C005E                         JMP       NoisePlayer._L0000
0511   006A            NoisePlayer._L0004:
0512   006A            NoisePlayer._L0002:
0513   006A                                    .LINE     40
0514   006A       9A28                         SBI       00025h, 000h
0515   006B                                    .ENDBLOCK 41
0516   006B            NoisePlayer.DF_busy_X:
0517   006B                                    .LINE     41
0518   0000                                    .BRANCH   19
0519   006B       9508                         RET
0520   006C                                    .ENDFUNC  41
0521   006C            
0522   006C                                    .FUNC     DF_wen, 0002Bh, 00020h
0523   006C            NoisePlayer.DF_wen:
0524   006C                                    .RETURNS   0
0525   006C                                    .BLOCK    45
0526   006C                                    .LINE     46
0527   006C       9828                         CBI       00025h, 000h
0528   006D                                    .LINE     47
0529   006D       E016                         LDI       _ACCA, 006h
0530   006E       2EB1                         MOV       NOISEPLAYER.DF_SEND, _ACCA
0531   006F                                    .LINE     48
0532   0045                                    .BRANCH   17,NoisePlayer.DF_SR
0533   006F   940E0045                         CALL      NoisePlayer.DF_SR
0534   0071            
0535   0071                                    .LINE     49
0536   0071       9A28                         SBI       00025h, 000h
0537   0072                                    .ENDBLOCK 50
0538   0072            NoisePlayer.DF_wen_X:
0539   0072                                    .LINE     50
0540   0000                                    .BRANCH   19
0541   0072       9508                         RET
0542   0073                                    .ENDFUNC  50
0543   0073            
0544   0073                                    .FUNC     DF_unprotect, 00034h, 00020h
0545   0073            NoisePlayer.DF_unprotect:
0546   0073                                    .RETURNS   0
0547   0073                                    .BLOCK    54
0548   0073                                    .LINE     55
0549   006C                                    .BRANCH   17,NoisePlayer.DF_WEN
0550   0073   940E006C                         CALL      NoisePlayer.DF_WEN
0551   0075            
0552   0075                                    .LINE     56
0553   0075       9828                         CBI       00025h, 000h
0554   0076                                    .LINE     57
0555   0076       E011                         LDI       _ACCA, 001h
0556   0077       2EB1                         MOV       NOISEPLAYER.DF_SEND, _ACCA
0557   0078                                    .LINE     58
0558   0045                                    .BRANCH   17,NoisePlayer.DF_SR
0559   0078   940E0045                         CALL      NoisePlayer.DF_SR
0560   007A            
0561   007A                                    .LINE     59
0562   007A       E010                         LDI       _ACCA, 000h
0563   007B       2EB1                         MOV       NOISEPLAYER.DF_SEND, _ACCA
0564   007C                                    .LINE     60
0565   0045                                    .BRANCH   17,NoisePlayer.DF_SR
0566   007C   940E0045                         CALL      NoisePlayer.DF_SR
0567   007E            
0568   007E                                    .LINE     61
0569   007E       9A28                         SBI       00025h, 000h
0570   007F                                    .LINE     62
0571   0059                                    .BRANCH   17,NoisePlayer.DF_BUSY
0572   007F   940E0059                         CALL      NoisePlayer.DF_BUSY
0573   0081            
0574   0081                                    .ENDBLOCK 63
0575   0081            NoisePlayer.DF_unprotect_X:
0576   0081                                    .LINE     63
0577   0000                                    .BRANCH   19
0578   0081       9508                         RET
0579   0082                                    .ENDFUNC  63
0580   0082            
0581   0082                                    .FUNC     DF_protect, 00041h, 00020h
0582   0082            NoisePlayer.DF_protect:
0583   0082                                    .RETURNS   0
0584   0082                                    .BLOCK    67
0585   0082                                    .LINE     68
0586   006C                                    .BRANCH   17,NoisePlayer.DF_WEN
0587   0082   940E006C                         CALL      NoisePlayer.DF_WEN
0588   0084            
0589   0084                                    .LINE     69
0590   0084       9828                         CBI       00025h, 000h
0591   0085                                    .LINE     70
0592   0085       E011                         LDI       _ACCA, 001h
0593   0086       2EB1                         MOV       NOISEPLAYER.DF_SEND, _ACCA
0594   0087                                    .LINE     71
0595   0045                                    .BRANCH   17,NoisePlayer.DF_SR
0596   0087   940E0045                         CALL      NoisePlayer.DF_SR
0597   0089            
0598   0089                                    .LINE     72
0599   0089       E31F                         LDI       _ACCA, 03Fh
0600   008A       2EB1                         MOV       NOISEPLAYER.DF_SEND, _ACCA
0601   008B                                    .LINE     73
0602   0045                                    .BRANCH   17,NoisePlayer.DF_SR
0603   008B   940E0045                         CALL      NoisePlayer.DF_SR
0604   008D            
0605   008D                                    .LINE     74
0606   008D       9A28                         SBI       00025h, 000h
0607   008E                                    .LINE     75
0608   0059                                    .BRANCH   17,NoisePlayer.DF_BUSY
0609   008E   940E0059                         CALL      NoisePlayer.DF_BUSY
0610   0090            
0611   0090                                    .ENDBLOCK 76
0612   0090            NoisePlayer.DF_protect_X:
0613   0090                                    .LINE     76
0614   0000                                    .BRANCH   19
0615   0090       9508                         RET
0616   0091                                    .ENDFUNC  76
0617   0091            
0618   0091                                    .FUNC     DFeraseBlock, 0004Eh, 00020h
0619   0091            NoisePlayer.DFeraseBlock:
0620   0091                                    .RETURNS   1
0621   0091                                    .BLOCK    81
0622   0091                                    .LINE     82
0623   006C                                    .BRANCH   17,NoisePlayer.DF_WEN
0624   0091   940E006C                         CALL      NoisePlayer.DF_WEN
0625   0093            
0626   0093                                    .LINE     83
0627   0093       9828                         CBI       00025h, 000h
0628   0094                                    .LINE     84
0629   0094       813B                         LDD       _ACCAHI, Y+003h
0630   0095       812A                         LDD       _ACCALO, Y+002h
0631   0096       8119                         LDD       _ACCA, Y+001h
0632   0097       8108                         LDD       _ACCB, Y+000h
0633   0098   93000187                         STS       NOISEPLAYER.DF_LONG, _ACCB
0634   009A   93100188                         STS       NOISEPLAYER.DF_LONG+1, _ACCA
0635   009C   93200189                         STS       NOISEPLAYER.DF_LONG+2, _ACCALO
0636   009E   9330018A                         STS       NOISEPLAYER.DF_LONG+3, _ACCAHI
0637   00A0                                    .LINE     88
0638   00A0       E210                         LDI       _ACCA, 020h
0639   00A1       2EB1                         MOV       NOISEPLAYER.DF_SEND, _ACCA
0640   00A2                                    .LINE     90
0641   0045                                    .BRANCH   17,NoisePlayer.DF_SR
0642   00A2   940E0045                         CALL      NoisePlayer.DF_SR
0643   00A4            
0644   00A4                                    .LINE     91
0645   00A4   91100189                         LDS       _ACCA, NoisePlayer.DF_long2
0646   00A6       2EB1                         MOV       NOISEPLAYER.DF_SEND, _ACCA
0647   00A7                                    .LINE     92
0648   0045                                    .BRANCH   17,NoisePlayer.DF_SR
0649   00A7   940E0045                         CALL      NoisePlayer.DF_SR
0650   00A9            
0651   00A9                                    .LINE     93
0652   00A9   91100188                         LDS       _ACCA, NoisePlayer.DF_long1
0653   00AB       2EB1                         MOV       NOISEPLAYER.DF_SEND, _ACCA
0654   00AC                                    .LINE     94
0655   0045                                    .BRANCH   17,NoisePlayer.DF_SR
0656   00AC   940E0045                         CALL      NoisePlayer.DF_SR
0657   00AE            
0658   00AE                                    .LINE     95
0659   00AE   91100187                         LDS       _ACCA, NoisePlayer.DF_long0
0660   00B0       2EB1                         MOV       NOISEPLAYER.DF_SEND, _ACCA
0661   00B1                                    .LINE     96
0662   0045                                    .BRANCH   17,NoisePlayer.DF_SR
0663   00B1   940E0045                         CALL      NoisePlayer.DF_SR
0664   00B3            
0665   00B3                                    .LINE     97
0666   00B3       9A28                         SBI       00025h, 000h
0667   00B4                                    .LINE     98
0668   0059                                    .BRANCH   17,NoisePlayer.DF_BUSY
0669   00B4   940E0059                         CALL      NoisePlayer.DF_BUSY
0670   00B6            
0671   00B6                                    .LINE     99
0672   00B6       2D1C                         MOV       _ACCA, NoisePlayer.DF_receive
0673   00B7       7210                         ANDI      _ACCA, 020h
0674   00B8       3010                         CPI       _ACCA, 000h
0675   00B9       E010                         LDI       _ACCA, 0h
0676   00BA       F009                         BREQ      NoisePlayer._L0005
0677   00BB       EF1F                         SER       _ACCA
0678   00BC            NoisePlayer._L0005:
0679   00BC       94E8                         CLT
0680   00BD       2311                         TST       _ACCA
0681   00BE       F009                         BREQ      NoisePlayer._L0006
0682   00BF       9468                         SET
0683   00C0            NoisePlayer._L0006:
0684   00C0   911001B8                         LDS       _ACCA, 001B8h
0685   00C2       F912                         BLD       _ACCA, 002h
0686   00C3   931001B8                         STS       001B8h, _ACCA
0687   00C5                                    .LINE     100
0688   00C5   910001B8                         LDS       _ACCB, 001B8h
0689   00C7       2711                         CLR       _ACCA
0690   00C8       FD02                         SBRC      _ACCB, 002h
0691   00C9       EF1F                         SER       _ACCA
0692   00CA       9510                         COM       _ACCA
0693   00CB                                    .ENDBLOCK 101
0694   00CB            NoisePlayer.DFeraseBlock_X:
0695   00CB                                    .LINE     101
0696   0000                                    .BRANCH   19
0697   00CB       9508                         RET
0698   00CC                                    .ENDFUNC  101
0699   00CC            
0700   00CC                                    .FUNC     DF_erase, 00067h, 00020h
0701   00CC            NoisePlayer.DF_erase:
0702   00CC                                    .RETURNS   1
0703   00CC                                    .BLOCK    106
0704   00CC                                    .LINE     107
0705   006C                                    .BRANCH   17,NoisePlayer.DF_WEN
0706   00CC   940E006C                         CALL      NoisePlayer.DF_WEN
0707   00CE            
0708   00CE                                    .LINE     108
0709   00CE       9828                         CBI       00025h, 000h
0710   00CF                                    .LINE     109
0711   00CF       EC17                         LDI       _ACCA, 0C7h
0712   00D0       2EB1                         MOV       NOISEPLAYER.DF_SEND, _ACCA
0713   00D1                                    .LINE     110
0714   0045                                    .BRANCH   17,NoisePlayer.DF_SR
0715   00D1   940E0045                         CALL      NoisePlayer.DF_SR
0716   00D3            
0717   00D3                                    .LINE     111
0718   00D3       9A28                         SBI       00025h, 000h
0719   00D4                                    .LINE     112
0720   0059                                    .BRANCH   17,NoisePlayer.DF_BUSY
0721   00D4   940E0059                         CALL      NoisePlayer.DF_BUSY
0722   00D6            
0723   00D6                                    .LINE     113
0724   00D6       2D1C                         MOV       _ACCA, NoisePlayer.DF_receive
0725   00D7       7210                         ANDI      _ACCA, 020h
0726   00D8       3010                         CPI       _ACCA, 000h
0727   00D9       E010                         LDI       _ACCA, 0h
0728   00DA       F009                         BREQ      NoisePlayer._L0008
0729   00DB       EF1F                         SER       _ACCA
0730   00DC            NoisePlayer._L0008:
0731   00DC       94E8                         CLT
0732   00DD       2311                         TST       _ACCA
0733   00DE       F009                         BREQ      NoisePlayer._L0009
0734   00DF       9468                         SET
0735   00E0            NoisePlayer._L0009:
0736   00E0   911001B8                         LDS       _ACCA, 001B8h
0737   00E2       F912                         BLD       _ACCA, 002h
0738   00E3   931001B8                         STS       001B8h, _ACCA
0739   00E5                                    .LINE     114
0740   00E5   910001B8                         LDS       _ACCB, 001B8h
0741   00E7       2711                         CLR       _ACCA
0742   00E8       FD02                         SBRC      _ACCB, 002h
0743   00E9       EF1F                         SER       _ACCA
0744   00EA       9510                         COM       _ACCA
0745   00EB                                    .ENDBLOCK 115
0746   00EB            NoisePlayer.DF_erase_X:
0747   00EB                                    .LINE     115
0748   0000                                    .BRANCH   19
0749   00EB       9508                         RET
0750   00EC                                    .ENDFUNC  115
0751   00EC            
0752   00EC                                    .FUNC     DFwriteblock, 00075h, 00020h
0753   00EC            NoisePlayer.DFwriteblock:
0754   00EC                                    .RETURNS   1
0755   00EC       9721                         SBIW      _FRAMEPTR, 1
0756   00ED                                    .BLOCK    121
0757   00ED                                    .LINE     122
0758   00ED       8109                         LDD       _ACCB, Y+001h
0759   00EE       811A                         LDD       _ACCA, Y+002h
0760   00EF       5001                         SUBI      _ACCB, 00001h AND 0FFh
0761   00F0       4010                         SBCI      _ACCA, 00001h SHRB 8
0762   00F1       2F10                         MOV       _ACCA, _ACCB
0763   00F2       8318                         STD       Y+000h, _ACCA
0764   00F3                                    .LINE     123
0765   006C                                    .BRANCH   17,NoisePlayer.DF_WEN
0766   00F3   940E006C                         CALL      NoisePlayer.DF_WEN
0767   00F5            
0768   00F5                                    .LINE     124
0769   00F5       9828                         CBI       00025h, 000h
0770   00F6                                    .LINE     125
0771   00F6       813E                         LDD       _ACCAHI, Y+006h
0772   00F7       812D                         LDD       _ACCALO, Y+005h
0773   00F8       811C                         LDD       _ACCA, Y+004h
0774   00F9       810B                         LDD       _ACCB, Y+003h
0775   00FA   93000187                         STS       NOISEPLAYER.DF_LONG, _ACCB
0776   00FC   93100188                         STS       NOISEPLAYER.DF_LONG+1, _ACCA
0777   00FE   93200189                         STS       NOISEPLAYER.DF_LONG+2, _ACCALO
0778   0100   9330018A                         STS       NOISEPLAYER.DF_LONG+3, _ACCAHI
0779   0102                                    .LINE     126
0780   0102       E012                         LDI       _ACCA, 002h
0781   0103       2EB1                         MOV       NOISEPLAYER.DF_SEND, _ACCA
0782   0104                                    .LINE     127
0783   0045                                    .BRANCH   17,NoisePlayer.DF_SR
0784   0104   940E0045                         CALL      NoisePlayer.DF_SR
0785   0106            
0786   0106                                    .LINE     128
0787   0106   91100189                         LDS       _ACCA, NoisePlayer.DF_long2
0788   0108       2EB1                         MOV       NOISEPLAYER.DF_SEND, _ACCA
0789   0109                                    .LINE     129
0790   0045                                    .BRANCH   17,NoisePlayer.DF_SR
0791   0109   940E0045                         CALL      NoisePlayer.DF_SR
0792   010B            
0793   010B                                    .LINE     130
0794   010B   91100188                         LDS       _ACCA, NoisePlayer.DF_long1
0795   010D       2EB1                         MOV       NOISEPLAYER.DF_SEND, _ACCA
0796   010E                                    .LINE     131
0797   0045                                    .BRANCH   17,NoisePlayer.DF_SR
0798   010E   940E0045                         CALL      NoisePlayer.DF_SR
0799   0110            
0800   0110                                    .LINE     132
0801   0110   91100187                         LDS       _ACCA, NoisePlayer.DF_long0
0802   0112       2EB1                         MOV       NOISEPLAYER.DF_SEND, _ACCA
0803   0113                                    .LINE     133
0804   0045                                    .BRANCH   17,NoisePlayer.DF_SR
0805   0113   940E0045                         CALL      NoisePlayer.DF_SR
0806   0115            
0807   0115                                    .LINE     134
0808   0115                                    .LOOP
0809   0115       E0E7                         LDI       _ACCCLO, NoisePlayer.h AND 0FFh
0810   0116       E0F0                         LDI       _ACCCHI, NoisePlayer.h SHRB 8
0811   0117       93FA                         ST        -Y, _ACCCHI
0812   0118       93EA                         ST        -Y, _ACCCLO
0813   0119                                    .FRAME  2
0814   0119       E010                         LDI       _ACCA, 000h
0815   011A       8310                         ST        Z, _ACCA
0816   011B       93EF                         PUSH      _ACCCLO
0817   011C       93FF                         PUSH      _ACCCHI
0818   011D       811A                         LDD       _ACCA, Y+002h
0819   011E       91FF                         POP       _ACCCHI
0820   011F       91EF                         POP       _ACCCLO
0821   0120       931A                         ST        -Y, _ACCA
0822   0121                                    .FRAME  3
0823   0121       8110                         LD        _ACCA, Z
0824   0122            NoisePlayer._L0013:
0825   0122       8108                         LDD       _ACCB, Y+000h
0826   0123       1701                         CP        _ACCB, _ACCA
0827   0124       EF1F                         LDI       _ACCA, 0FFh
0828   0125       F008                         BRLO      NoisePlayer._L0014
0829   0126       2711                         CLR       _ACCA
0830   0127            NoisePlayer._L0014:
0831   0127       2311                         TST       _ACCA
0832   012B                                    .BRANCH   3,NoisePlayer._L0015
0833   0128       F011                         BREQ      NoisePlayer._L0015
0834   013F                                    .BRANCH   20,NoisePlayer._L0012
0835   0129   940C013F                         JMP       NoisePlayer._L0012
0836   012B            NoisePlayer._L0015:
0837   012B                                    .BLOCK    135
0838   012B                                    .LINE     135
0839   012B       2D17                         MOV       _ACCA, NoisePlayer.h
0840   012C       E2EC                         LDI       _ACCCLO, NoisePlayer.BlockTable AND 0FFh
0841   012D       E0F3                         LDI       _ACCCHI, NoisePlayer.BlockTable SHRB 8
0842   012E       7F1F                         ANDI      _ACCA, 255
0843   012F       2700                         CLR       _ACCB
0844   0130       0FE1                         ADD       _ACCCLO, _ACCA
0845   0131       1FF0                         ADC       _ACCCHI, _ACCB
0846   0132       8110                         LD        _ACCA, Z
0847   0133       2EB1                         MOV       NOISEPLAYER.DF_SEND, _ACCA
0848   0134                                    .LINE     136
0849   0045                                    .BRANCH   17,NoisePlayer.DF_SR
0850   0134   940E0045                         CALL      NoisePlayer.DF_SR
0851   0136            
0852   0136                                    .ENDBLOCK 137
0853   0136            NoisePlayer._L0011:
0854   0136                                    .LINE     137
0855   0136       81E9                         LDD       _ACCCLO, Y+001h
0856   0137       81FA                         LDD       _ACCCHI, Y+002h
0857   0138       8110                         LD        _ACCA, Z
0858   0139       9513                         INC       _ACCA
0859   013A       8310                         ST        Z, _ACCA
0860   013B       2311                         TST       _ACCA
0861   013F                                    .BRANCH   3,NoisePlayer._L0012
0862   013C       F011                         BREQ      NoisePlayer._L0012
0863   0122                                    .BRANCH   20,NoisePlayer._L0013
0864   013D   940C0122                         JMP       NoisePlayer._L0013
0865   013F            NoisePlayer._L0012:
0866   013F       9623                         ADIW      _FRAMEPTR, 3
0867   0140                                    .FRAME  0
0868   0140                                    .ENDLOOP
0869   0140                                    .LINE     138
0870   0140       9A28                         SBI       00025h, 000h
0871   0141                                    .LINE     139
0872   0059                                    .BRANCH   17,NoisePlayer.DF_BUSY
0873   0141   940E0059                         CALL      NoisePlayer.DF_BUSY
0874   0143            
0875   0143                                    .LINE     140
0876   0143       2D1C                         MOV       _ACCA, NoisePlayer.DF_receive
0877   0144       7210                         ANDI      _ACCA, 020h
0878   0145       3010                         CPI       _ACCA, 000h
0879   0146       E010                         LDI       _ACCA, 0h
0880   0147       F009                         BREQ      NoisePlayer._L0016
0881   0148       EF1F                         SER       _ACCA
0882   0149            NoisePlayer._L0016:
0883   0149       94E8                         CLT
0884   014A       2311                         TST       _ACCA
0885   014B       F009                         BREQ      NoisePlayer._L0017
0886   014C       9468                         SET
0887   014D            NoisePlayer._L0017:
0888   014D   911001B8                         LDS       _ACCA, 001B8h
0889   014F       F912                         BLD       _ACCA, 002h
0890   0150   931001B8                         STS       001B8h, _ACCA
0891   0152                                    .LINE     141
0892   0152   910001B8                         LDS       _ACCB, 001B8h
0893   0154       2711                         CLR       _ACCA
0894   0155       FD02                         SBRC      _ACCB, 002h
0895   0156       EF1F                         SER       _ACCA
0896   0157       9510                         COM       _ACCA
0897   0158                                    .ENDBLOCK 142
0898   0158            NoisePlayer.DFwriteblock_X:
0899   0158                                    .LINE     142
0900   0000                                    .BRANCH   19
0901   0158       9508                         RET
0902   0159                                    .ENDFUNC  142
0903   0159            
0904   0159                                    .FUNC     DFreadblock, 00090h, 00020h
0905   0159            NoisePlayer.DFreadblock:
0906   0159                                    .RETURNS   0
0907   0159       9721                         SBIW      _FRAMEPTR, 1
0908   015A                                    .BLOCK    147
0909   015A                                    .LINE     148
0910   0059                                    .BRANCH   17,NoisePlayer.DF_BUSY
0911   015A   940E0059                         CALL      NoisePlayer.DF_BUSY
0912   015C            
0913   015C                                    .LINE     149
0914   015C       810A                         LDD       _ACCB, Y+002h
0915   015D       811B                         LDD       _ACCA, Y+003h
0916   015E       5001                         SUBI      _ACCB, 00001h AND 0FFh
0917   015F       4010                         SBCI      _ACCA, 00001h SHRB 8
0918   0160       2F10                         MOV       _ACCA, _ACCB
0919   0161       8318                         STD       Y+000h, _ACCA
0920   0162                                    .LINE     150
0921   0162       813F                         LDD       _ACCAHI, Y+007h
0922   0163       812E                         LDD       _ACCALO, Y+006h
0923   0164       811D                         LDD       _ACCA, Y+005h
0924   0165       810C                         LDD       _ACCB, Y+004h
0925   0166   93000187                         STS       NOISEPLAYER.DF_LONG, _ACCB
0926   0168   93100188                         STS       NOISEPLAYER.DF_LONG+1, _ACCA
0927   016A   93200189                         STS       NOISEPLAYER.DF_LONG+2, _ACCALO
0928   016C   9330018A                         STS       NOISEPLAYER.DF_LONG+3, _ACCAHI
0929   016E                                    .LINE     151
0930   016E       9828                         CBI       00025h, 000h
0931   016F                                    .LINE     152
0932   016F       E01B                         LDI       _ACCA, 00Bh
0933   0170       2EB1                         MOV       NOISEPLAYER.DF_SEND, _ACCA
0934   0171                                    .LINE     153
0935   0045                                    .BRANCH   17,NoisePlayer.DF_SR
0936   0171   940E0045                         CALL      NoisePlayer.DF_SR
0937   0173            
0938   0173                                    .LINE     154
0939   0173   91100189                         LDS       _ACCA, NoisePlayer.DF_long2
0940   0175       2EB1                         MOV       NOISEPLAYER.DF_SEND, _ACCA
0941   0176                                    .LINE     155
0942   0045                                    .BRANCH   17,NoisePlayer.DF_SR
0943   0176   940E0045                         CALL      NoisePlayer.DF_SR
0944   0178            
0945   0178                                    .LINE     156
0946   0178   91100188                         LDS       _ACCA, NoisePlayer.DF_long1
0947   017A       2EB1                         MOV       NOISEPLAYER.DF_SEND, _ACCA
0948   017B                                    .LINE     157
0949   0045                                    .BRANCH   17,NoisePlayer.DF_SR
0950   017B   940E0045                         CALL      NoisePlayer.DF_SR
0951   017D            
0952   017D                                    .LINE     158
0953   017D   91100187                         LDS       _ACCA, NoisePlayer.DF_long0
0954   017F       2EB1                         MOV       NOISEPLAYER.DF_SEND, _ACCA
0955   0180                                    .LINE     159
0956   0045                                    .BRANCH   17,NoisePlayer.DF_SR
0957   0180   940E0045                         CALL      NoisePlayer.DF_SR
0958   0182            
0959   0182                                    .LINE     160
0960   0182       E010                         LDI       _ACCA, 000h
0961   0183       2EB1                         MOV       NOISEPLAYER.DF_SEND, _ACCA
0962   0184                                    .LINE     161
0963   0045                                    .BRANCH   17,NoisePlayer.DF_SR
0964   0184   940E0045                         CALL      NoisePlayer.DF_SR
0965   0186            
0966   0186                                    .LINE     162
0967   0186                                    .LOOP
0968   0186       E0E7                         LDI       _ACCCLO, NoisePlayer.h AND 0FFh
0969   0187       E0F0                         LDI       _ACCCHI, NoisePlayer.h SHRB 8
0970   0188       93FA                         ST        -Y, _ACCCHI
0971   0189       93EA                         ST        -Y, _ACCCLO
0972   018A                                    .FRAME  2
0973   018A       E010                         LDI       _ACCA, 000h
0974   018B       8310                         ST        Z, _ACCA
0975   018C       93EF                         PUSH      _ACCCLO
0976   018D       93FF                         PUSH      _ACCCHI
0977   018E       811A                         LDD       _ACCA, Y+002h
0978   018F       91FF                         POP       _ACCCHI
0979   0190       91EF                         POP       _ACCCLO
0980   0191       931A                         ST        -Y, _ACCA
0981   0192                                    .FRAME  3
0982   0192       8110                         LD        _ACCA, Z
0983   0193            NoisePlayer._L0021:
0984   0193       8108                         LDD       _ACCB, Y+000h
0985   0194       1701                         CP        _ACCB, _ACCA
0986   0195       EF1F                         LDI       _ACCA, 0FFh
0987   0196       F008                         BRLO      NoisePlayer._L0022
0988   0197       2711                         CLR       _ACCA
0989   0198            NoisePlayer._L0022:
0990   0198       2311                         TST       _ACCA
0991   019C                                    .BRANCH   3,NoisePlayer._L0023
0992   0199       F011                         BREQ      NoisePlayer._L0023
0993   01C4                                    .BRANCH   20,NoisePlayer._L0020
0994   019A   940C01C4                         JMP       NoisePlayer._L0020
0995   019C            NoisePlayer._L0023:
0996   019C                                    .BLOCK    163
0997   019C                                    .LINE     163
0998   0045                                    .BRANCH   17,NoisePlayer.DF_SR
0999   019C   940E0045                         CALL      NoisePlayer.DF_SR
1000   019E            
1001   019E                                    .LINE     164
1002   019E       811C                         LDD       _ACCA, Y+004h
1003   019F       2311                         TST       _ACCA
1004   01A3                                    .BRANCH   4,NoisePlayer._L0026
1005   01A0       F411                         BRNE      NoisePlayer._L0026
1006   01B0                                    .BRANCH   20,NoisePlayer._L0024
1007   01A1   940C01B0                         JMP       NoisePlayer._L0024
1008   01A3            NoisePlayer._L0026:
1009   01A3                                    .BLOCK    164
1010   01A3                                    .LINE     165
1011   01A3       2D17                         MOV       _ACCA, NoisePlayer.h
1012   01A4       931F                         PUSH      _ACCA
1013   01A5       2D1C                         MOV       _ACCA, NoisePlayer.DF_receive
1014   01A6       E2EC                         LDI       _ACCCLO, NoisePlayer.VerifyTable AND 0FFh
1015   01A7       E0F2                         LDI       _ACCCHI, NoisePlayer.VerifyTable SHRB 8
1016   01A8       91AF                         POP       _ACCBLO
1017   01A9       7FAF                         ANDI      _ACCBLO, 255
1018   01AA       27BB                         CLR       _ACCBHI
1019   01AB       0FEA                         ADD       _ACCCLO, _ACCBLO
1020   01AC       1FFB                         ADC       _ACCCHI, _ACCBHI
1021   01AD       8310                         ST        Z, _ACCA
1022   01AE                                    .ENDBLOCK 166
1023   01BB                                    .BRANCH   20,NoisePlayer._L0025
1024   01AE   940C01BB                         JMP       NoisePlayer._L0025
1025   01B0            NoisePlayer._L0024:
1026   01B0                                    .BLOCK    166
1027   01B0                                    .LINE     167
1028   01B0       2D17                         MOV       _ACCA, NoisePlayer.h
1029   01B1       931F                         PUSH      _ACCA
1030   01B2       2D1C                         MOV       _ACCA, NoisePlayer.DF_receive
1031   01B3       E2EC                         LDI       _ACCCLO, NoisePlayer.BlockTable AND 0FFh
1032   01B4       E0F3                         LDI       _ACCCHI, NoisePlayer.BlockTable SHRB 8
1033   01B5       91AF                         POP       _ACCBLO
1034   01B6       7FAF                         ANDI      _ACCBLO, 255
1035   01B7       27BB                         CLR       _ACCBHI
1036   01B8       0FEA                         ADD       _ACCCLO, _ACCBLO
1037   01B9       1FFB                         ADC       _ACCCHI, _ACCBHI
1038   01BA       8310                         ST        Z, _ACCA
1039   01BB                                    .ENDBLOCK 168
1040   01BB            NoisePlayer._L0025:
1041   01BB                                    .ENDBLOCK 169
1042   01BB            NoisePlayer._L0019:
1043   01BB                                    .LINE     169
1044   01BB       81E9                         LDD       _ACCCLO, Y+001h
1045   01BC       81FA                         LDD       _ACCCHI, Y+002h
1046   01BD       8110                         LD        _ACCA, Z
1047   01BE       9513                         INC       _ACCA
1048   01BF       8310                         ST        Z, _ACCA
1049   01C0       2311                         TST       _ACCA
1050   01C4                                    .BRANCH   3,NoisePlayer._L0020
1051   01C1       F011                         BREQ      NoisePlayer._L0020
1052   0193                                    .BRANCH   20,NoisePlayer._L0021
1053   01C2   940C0193                         JMP       NoisePlayer._L0021
1054   01C4            NoisePlayer._L0020:
1055   01C4       9623                         ADIW      _FRAMEPTR, 3
1056   01C5                                    .FRAME  0
1057   01C5                                    .ENDLOOP
1058   01C5                                    .LINE     170
1059   01C5       9A28                         SBI       00025h, 000h
1060   01C6                                    .ENDBLOCK 171
1061   01C6            NoisePlayer.DFreadblock_X:
1062   01C6                                    .LINE     171
1063   0000                                    .BRANCH   19
1064   01C6       9508                         RET
1065   01C7                                    .ENDFUNC  171
1066   01C7            
1067   01C7                                    .FUNC     DFsetReadAddr, 000ADh, 00020h
1068   01C7            NoisePlayer.DFsetReadAddr:
1069   01C7                                    .RETURNS   0
1070   01C7                                    .BLOCK    175
1071   01C7                                    .LINE     176
1072   01C7       9A28                         SBI       00025h, 000h
1073   01C8                                    .LINE     177
1074   01C8       0000                         NOP
1075   01C9                                    .LINE     178
1076   01C9       9828                         CBI       00025h, 000h
1077   01CA                                    .LINE     179
1078   01CA       E013                         LDI       _ACCA, 003h
1079   01CB       2EB1                         MOV       NOISEPLAYER.DF_SEND, _ACCA
1080   01CC                                    .LINE     180
1081   0045                                    .BRANCH   17,NoisePlayer.DF_SR
1082   01CC   940E0045                         CALL      NoisePlayer.DF_SR
1083   01CE            
1084   01CE                                    .LINE     181
1085   01CE   91100189                         LDS       _ACCA, NoisePlayer.DF_long2
1086   01D0       2EB1                         MOV       NOISEPLAYER.DF_SEND, _ACCA
1087   01D1                                    .LINE     182
1088   0045                                    .BRANCH   17,NoisePlayer.DF_SR
1089   01D1   940E0045                         CALL      NoisePlayer.DF_SR
1090   01D3            
1091   01D3                                    .LINE     183
1092   01D3   91100188                         LDS       _ACCA, NoisePlayer.DF_long1
1093   01D5       2EB1                         MOV       NOISEPLAYER.DF_SEND, _ACCA
1094   01D6                                    .LINE     184
1095   0045                                    .BRANCH   17,NoisePlayer.DF_SR
1096   01D6   940E0045                         CALL      NoisePlayer.DF_SR
1097   01D8            
1098   01D8                                    .LINE     185
1099   01D8   91100187                         LDS       _ACCA, NoisePlayer.DF_long0
1100   01DA       2EB1                         MOV       NOISEPLAYER.DF_SEND, _ACCA
1101   01DB                                    .LINE     186
1102   0045                                    .BRANCH   17,NoisePlayer.DF_SR
1103   01DB   940E0045                         CALL      NoisePlayer.DF_SR
1104   01DD            
1105   01DD                                    .ENDBLOCK 187
1106   01DD            NoisePlayer.DFsetReadAddr_X:
1107   01DD                                    .LINE     187
1108   0000                                    .BRANCH   19
1109   01DD       9508                         RET
1110   01DE                                    .ENDFUNC  187
1111   01DE            
1112   01DE            
1113   01DE                                    .FILE     E:\DROPBOX\NOISEPLAYER\AVR\NoisePlayer.pas
1114   01DE            
1115   01DE                                    .FILE     NP_com.pas
1116   01DE                                    .FUNC     SerCRLF, 00008h, 00020h
1117   01DE            NoisePlayer.SerCRLF:
1118   01DE                                    .RETURNS   0
1119   01DE                                    .BLOCK    9
1120   01DE                                    .LINE     10
1121   01DE       E01D                         LDI       _ACCA, 00Dh
1122   01DF                                    .FRAME  0
1123   01DF   940E125A                         CALL      SYSTEM.SEROUT
1124   01E1            
1125   01E1                                    .LINE     11
1126   01E1       E01A                         LDI       _ACCA, 00Ah
1127   01E2                                    .FRAME  0
1128   01E2   940E125A                         CALL      SYSTEM.SEROUT
1129   01E4            
1130   01E4                                    .ENDBLOCK 12
1131   01E4            NoisePlayer.SerCRLF_X:
1132   01E4                                    .LINE     12
1133   0000                                    .BRANCH   19
1134   01E4       9508                         RET
1135   01E5                                    .ENDFUNC  12
1136   01E5            
1137   01E5                                    .FUNC     WriteChPrefix, 0000Fh, 00020h
1138   01E5            NoisePlayer.WriteChPrefix:
1139   01E5                                    .RETURNS   0
1140   01E5                                    .BLOCK    16
1141   01E5                                    .LINE     17
1142   01E5       93CF                         PUSH      _FRAMEPTR
1143   01E6       93DF                         PUSH      _FPTRHI
1144   01E7       E018                         LDI       _ACCA, 1 SHLB _DEVICE
1145   01E8       2A41                         OR        Flags, _ACCA
1146   01E9       E50A                         LDI       _ACCB, SYSTEM.serout SHRB 1
1147   01EA       E112                         LDI       _ACCA, SYSTEM.serout SHRB 9
1148   01EB       931A                         ST        -Y, _ACCA
1149   01EC       930A                         ST        -Y, _ACCB
1150   01ED                                    .FRAME  2
1151   01ED       E7EB                         LDI       _ACCCLO, $St_String2 AND 0FFh
1152   01EE       E2FF                         LDI       _ACCCHI, $St_String2 SHRB 8
1153   01EF   940E1439                         CALL      SYSTEM.StrConst2Str
1154   01F1            NoisePlayer._L0027:
1155   01F1       91DF                         POP       _FPTRHI
1156   01F2       91CF                         POP       _FRAMEPTR
1157   01F3                                    .FRAME  0
1158   01F3                                    .LINE     18
1159   01F3       93CF                         PUSH      _FRAMEPTR
1160   01F4       93DF                         PUSH      _FPTRHI
1161   01F5       E018                         LDI       _ACCA, 1 SHLB _DEVICE
1162   01F6       2A41                         OR        Flags, _ACCA
1163   01F7       E50A                         LDI       _ACCB, SYSTEM.serout SHRB 1
1164   01F8       E112                         LDI       _ACCA, SYSTEM.serout SHRB 9
1165   01F9       931A                         ST        -Y, _ACCA
1166   01FA       930A                         ST        -Y, _ACCB
1167   01FB                                    .FRAME  2
1168   01FB   91000154                         LDS       _ACCB, NoisePlayer.SubCh
1169   01FD   91100155                         LDS       _ACCA, NoisePlayer.SubCh+1
1170   01FF       93CF                         PUSH      _FRAMEPTR
1171   0200       93DF                         PUSH      _FPTRHI
1172   0201       931A                         ST        -Y, _ACCA
1173   0202       930A                         ST        -Y, _ACCB
1174   0203                                    .FRAME  4
1175   0203       E010                         LDI       _ACCA, 000h
1176   0204       931A                         ST        -Y, _ACCA
1177   0205       E010                         LDI       _ACCA, 000h
1178   0206       931A                         ST        -Y, _ACCA
1179   0207       E210                         LDI       _ACCA, 020h
1180   0208       931A                         ST        -Y, _ACCA
1181   0209                                    .FRAME  7
1182   0209       9468                         SET
1183   020A       F843                         BLD       Flags, _DEVICE
1184   020B       9468                         SET
1185   020C       F845                         BLD       Flags, _SIGN
1186   020D       94E8                         CLT
1187   020E       F854                         BLD       Flags2, _F64StrInt
1188   020F       F855                         BLD       Flags2, _F64StrFrac
1189   0210   940E1685                         CALL      SYSTEM.Int2Str
1190   0212                                    .FRAME  2
1191   0212       91DF                         POP       _FPTRHI
1192   0213       91CF                         POP       _FRAMEPTR
1193   0214       91DF                         POP       _FPTRHI
1194   0215       91CF                         POP       _FRAMEPTR
1195   0216                                    .FRAME  0
1196   0216                                    .LINE     19
1197   0216       E31D                         LDI       _ACCA, 03Dh
1198   0217                                    .FRAME  0
1199   0217   940E125A                         CALL      SYSTEM.SEROUT
1200   0219            
1201   0219                                    .ENDBLOCK 20
1202   0219            NoisePlayer.WriteChPrefix_X:
1203   0219                                    .LINE     20
1204   0000                                    .BRANCH   19
1205   0219       9508                         RET
1206   021A                                    .ENDFUNC  20
1207   021A            
1208   021A                                    .FUNC     WriteSerInp, 00016h, 00020h
1209   021A            NoisePlayer.WriteSerInp:
1210   021A                                    .RETURNS   0
1211   021A                                    .BLOCK    23
1212   021A                                    .LINE     24
1213   021A       93CF                         PUSH      _FRAMEPTR
1214   021B       93DF                         PUSH      _FPTRHI
1215   021C       E018                         LDI       _ACCA, 1 SHLB _DEVICE
1216   021D       2A41                         OR        Flags, _ACCA
1217   021E       E50A                         LDI       _ACCB, SYSTEM.serout SHRB 1
1218   021F       E112                         LDI       _ACCA, SYSTEM.serout SHRB 9
1219   0220       931A                         ST        -Y, _ACCA
1220   0221       930A                         ST        -Y, _ACCB
1221   0222                                    .FRAME  2
1222   0222       E6E5                         LDI       _ACCCLO, NoisePlayer.SerInpStr AND 0FFh
1223   0223       E0F1                         LDI       _ACCCHI, NoisePlayer.SerInpStr SHRB 8
1224   0224   940E1442                         CALL      SYSTEM.StrVar2Str
1225   0226       91DF                         POP       _FPTRHI
1226   0227       91CF                         POP       _FRAMEPTR
1227   0228                                    .FRAME  0
1228   0228                                    .LINE     25
1229   01DE                                    .BRANCH   17,NoisePlayer.SERCRLF
1230   0228   940E01DE                         CALL      NoisePlayer.SERCRLF
1231   022A            
1232   022A                                    .ENDBLOCK 26
1233   022A            NoisePlayer.WriteSerInp_X:
1234   022A                                    .LINE     26
1235   0000                                    .BRANCH   19
1236   022A       9508                         RET
1237   022B                                    .ENDFUNC  26
1238   022B            
1239   022B                                    .FUNC     SerPrompt, 0001Ch, 00020h
1240   022B            NoisePlayer.SerPrompt:
1241   022B                                    .RETURNS   0
1242   022B       9722                         SBIW      _FRAMEPTR, 2
1243   022C                                    .BLOCK    32
1244   022C                                    .LINE     33
1245   022C       E010                         LDI       _ACCA, 000FFh SHRB 8
1246   022D       EF0F                         LDI       _ACCB, 000FFh AND 0FFh
1247   022E   93000154                         STS       NOISEPLAYER.SUBCH, _ACCB
1248   0230   93100155                         STS       NOISEPLAYER.SUBCH+1, _ACCA
1249   0232                                    .LINE     34
1250   01E5                                    .BRANCH   17,NoisePlayer.WRITECHPREFIX
1251   0232   940E01E5                         CALL      NoisePlayer.WRITECHPREFIX
1252   0234            
1253   0234                                    .LINE     35
1254   0234       93CF                         PUSH      _FRAMEPTR
1255   0235       93DF                         PUSH      _FPTRHI
1256   0236       E018                         LDI       _ACCA, 1 SHLB _DEVICE
1257   0237       2A41                         OR        Flags, _ACCA
1258   0238       E50A                         LDI       _ACCB, SYSTEM.serout SHRB 1
1259   0239       E112                         LDI       _ACCA, SYSTEM.serout SHRB 9
1260   023A       931A                         ST        -Y, _ACCA
1261   023B       930A                         ST        -Y, _ACCB
1262   023C                                    .FRAME  2
1263   023C       811C                         LDD       _ACCA, Y+004h
1264   023D       93CF                         PUSH      _FRAMEPTR
1265   023E       93DF                         PUSH      _FPTRHI
1266   023F       931A                         ST        -Y, _ACCA
1267   0240                                    .FRAME  3
1268   0240       E010                         LDI       _ACCA, 000h
1269   0241       931A                         ST        -Y, _ACCA
1270   0242       E010                         LDI       _ACCA, 000h
1271   0243       931A                         ST        -Y, _ACCA
1272   0244       E210                         LDI       _ACCA, 020h
1273   0245       931A                         ST        -Y, _ACCA
1274   0246                                    .FRAME  6
1275   0246       9468                         SET
1276   0247       F843                         BLD       Flags, _DEVICE
1277   0248   940E144C                         CALL      SYSTEM.Byte2Str
1278   024A                                    .FRAME  2
1279   024A       91DF                         POP       _FPTRHI
1280   024B       91CF                         POP       _FRAMEPTR
1281   024C       91DF                         POP       _FPTRHI
1282   024D       91CF                         POP       _FRAMEPTR
1283   024E                                    .FRAME  0
1284   024E                                    .LINE     36
1285   024E       E210                         LDI       _ACCA, 020h
1286   024F                                    .FRAME  0
1287   024F   940E125A                         CALL      SYSTEM.SEROUT
1288   0251            
1289   0251                                    .LINE     37
1290   0251       93CF                         PUSH      _FRAMEPTR
1291   0252       93DF                         PUSH      _FPTRHI
1292   0253       E018                         LDI       _ACCA, 1 SHLB _DEVICE
1293   0254       2A41                         OR        Flags, _ACCA
1294   0255       E50A                         LDI       _ACCB, SYSTEM.serout SHRB 1
1295   0256       E112                         LDI       _ACCA, SYSTEM.serout SHRB 9
1296   0257       931A                         ST        -Y, _ACCA
1297   0258       930A                         ST        -Y, _ACCB
1298   0259                                    .FRAME  2
1299   0259       E3E4                         LDI       _ACCCLO, NoisePlayer.ErrStrArr AND 0FFh
1300   025A       E3F0                         LDI       _ACCCHI, NoisePlayer.ErrStrArr SHRB 8
1301   025B       93EF                         PUSH      _ACCCLO
1302   025C       93FF                         PUSH      _ACCCHI
1303   025D       811C                         LDD       _ACCA, Y+004h
1304   025E       2F01                         MOV       _ACCB, _ACCA
1305   025F       2711                         CLR       _ACCA
1306   0260       E0A9                         LDI       _ACCBLO, 00009h AND 0FFh
1307   0261       E0B0                         LDI       _ACCBHI, 00009h SHRB 8
1308   0262       94E8                         CLT
1309   0263       F845                         BLD       Flags, _SIGN
1310   0264   940E173E                         CALL      SYSTEM.MUL16
1311   0266       91FF                         POP       _ACCCHI
1312   0267       91EF                         POP       _ACCCLO
1313   0268       0FE0                         ADD       _ACCCLO, _ACCB
1314   0269       1FF1                         ADC       _ACCCHI, _ACCA
1315   026A   940E1439                         CALL      SYSTEM.StrConst2Str
1316   026C            NoisePlayer._L0028:
1317   026C       91DF                         POP       _FPTRHI
1318   026D       91CF                         POP       _FRAMEPTR
1319   026E                                    .FRAME  0
1320   026E                                    .LINE     38
1321   01DE                                    .BRANCH   17,NoisePlayer.SERCRLF
1322   026E   940E01DE                         CALL      NoisePlayer.SERCRLF
1323   0270            
1324   0270                                    .ENDBLOCK 39
1325   0270            NoisePlayer.SerPrompt_X:
1326   0270                                    .LINE     39
1327   0000                                    .BRANCH   19
1328   0270       9508                         RET
1329   0271                                    .ENDFUNC  39
1330   0271            
1331   0271                                    .FUNC     WriteParamStrSer, 0002Dh, 00020h
1332   0271            NoisePlayer.WriteParamStrSer:
1333   0271                                    .RETURNS   0
1334   0271                                    .BLOCK    46
1335   0271                                    .LINE     47
1336   01E5                                    .BRANCH   17,NoisePlayer.WRITECHPREFIX
1337   0271   940E01E5                         CALL      NoisePlayer.WRITECHPREFIX
1338   0273            
1339   0273                                    .LINE     48
1340   0273       93CF                         PUSH      _FRAMEPTR
1341   0274       93DF                         PUSH      _FPTRHI
1342   0275       E018                         LDI       _ACCA, 1 SHLB _DEVICE
1343   0276       2A41                         OR        Flags, _ACCA
1344   0277       E50A                         LDI       _ACCB, SYSTEM.serout SHRB 1
1345   0278       E112                         LDI       _ACCA, SYSTEM.serout SHRB 9
1346   0279       931A                         ST        -Y, _ACCA
1347   027A       930A                         ST        -Y, _ACCB
1348   027B                                    .FRAME  2
1349   027B       E8EC                         LDI       _ACCCLO, NoisePlayer.ParamStr AND 0FFh
1350   027C       E0F1                         LDI       _ACCCHI, NoisePlayer.ParamStr SHRB 8
1351   027D   940E1442                         CALL      SYSTEM.StrVar2Str
1352   027F       91DF                         POP       _FPTRHI
1353   0280       91CF                         POP       _FRAMEPTR
1354   0281                                    .FRAME  0
1355   0281                                    .LINE     49
1356   01DE                                    .BRANCH   17,NoisePlayer.SERCRLF
1357   0281   940E01DE                         CALL      NoisePlayer.SERCRLF
1358   0283            
1359   0283                                    .ENDBLOCK 50
1360   0283            NoisePlayer.WriteParamStrSer_X:
1361   0283                                    .LINE     50
1362   0000                                    .BRANCH   19
1363   0283       9508                         RET
1364   0284                                    .ENDFUNC  50
1365   0284            
1366   0284                                    .FUNC     WriteParamLongSer, 00034h, 00020h
1367   0284            NoisePlayer.WriteParamLongSer:
1368   0284                                    .RETURNS   0
1369   0284                                    .BLOCK    53
1370   0284                                    .LINE     54
1371   0284   91100163                         LDS       _ACCA, NoisePlayer.BinaryMode
1372   0286       2311                         TST       _ACCA
1373   028A                                    .BRANCH   4,NoisePlayer._L0031
1374   0287       F411                         BRNE      NoisePlayer._L0031
1375   029F                                    .BRANCH   20,NoisePlayer._L0029
1376   0288   940C029F                         JMP       NoisePlayer._L0029
1377   028A            NoisePlayer._L0031:
1378   028A                                    .BLOCK    54
1379   028A                                    .LINE     55
1380   028A       E016                         LDI       _ACCA, 006h
1381   028B                                    .FRAME  0
1382   028B   940E125A                         CALL      SYSTEM.SEROUT
1383   028D            
1384   028D                                    .LINE     56
1385   028D       E010                         LDI       _ACCA, 000h
1386   028E                                    .FRAME  0
1387   028E   940E125A                         CALL      SYSTEM.SEROUT
1388   0290            
1389   0290                                    .LINE     57
1390   0290   91000159                         LDS       _ACCB, NoisePlayer.ParamInt
1391   0292   9110015A                         LDS       _ACCA, NoisePlayer.ParamInt+1
1392   0294                                    .FRAME  0
1393   0294   940E125A                         CALL      SYSTEM.SEROUT
1394   0296            
1395   0296                                    .LINE     58
1396   0296   91000159                         LDS       _ACCB, NoisePlayer.ParamInt
1397   0298   9110015A                         LDS       _ACCA, NoisePlayer.ParamInt+1
1398   029A       2F10                         MOV       _ACCA, _ACCB
1399   029B                                    .FRAME  0
1400   029B   940E125A                         CALL      SYSTEM.SEROUT
1401   029D            
1402   029D                                    .ENDBLOCK 59
1403   02D6                                    .BRANCH   20,NoisePlayer._L0030
1404   029D   940C02D6                         JMP       NoisePlayer._L0030
1405   029F            NoisePlayer._L0029:
1406   029F                                    .BLOCK    59
1407   029F                                    .LINE     60
1408   029F       E8EC                         LDI       _ACCCLO, NoisePlayer.ParamStr AND 0FFh
1409   02A0       E0F1                         LDI       _ACCCHI, NoisePlayer.ParamStr SHRB 8
1410   02A1       93EF                         PUSH      _ACCCLO
1411   02A2       93FF                         PUSH      _ACCCHI
1412   02A3       9631                         ADIW      _ACCCLO, 1
1413   02A4       93FA                         ST        -Y, _ACCCHI
1414   02A5       93EA                         ST        -Y, _ACCCLO
1415   02A6       E218                         LDI       _ACCA, 028h
1416   02A7       931A                         ST        -Y, _ACCA
1417   02A8       EF17                         LDI       _ACCA, 0FEH ROLB _DEVICE
1418   02A9       2241                         AND       Flags, _ACCA
1419   02AA       EB1F                         LDI       _ACCA, 0FEH ROLB _EEPROM
1420   02AB       2241                         AND       Flags, _ACCA
1421   02AC                                    .FRAME  3
1422   02AC   9100015C                         LDS       _ACCB, NoisePlayer.ParamLong
1423   02AE   9110015D                         LDS       _ACCA, NoisePlayer.ParamLong+1
1424   02B0   9120015E                         LDS       _ACCALO, NoisePlayer.ParamLong+2
1425   02B2   9130015F                         LDS       _ACCAHI, NoisePlayer.ParamLong+3
1426   02B4       93CF                         PUSH      _FRAMEPTR
1427   02B5       93DF                         PUSH      _FPTRHI
1428   02B6       933A                         ST        -Y, _ACCAHI
1429   02B7       932A                         ST        -Y, _ACCALO
1430   02B8       931A                         ST        -Y, _ACCA
1431   02B9       930A                         ST        -Y, _ACCB
1432   02BA                                    .FRAME  7
1433   02BA       E010                         LDI       _ACCA, 000h
1434   02BB       931A                         ST        -Y, _ACCA
1435   02BC       E010                         LDI       _ACCA, 000h
1436   02BD       931A                         ST        -Y, _ACCA
1437   02BE       E210                         LDI       _ACCA, 020h
1438   02BF       931A                         ST        -Y, _ACCA
1439   02C0                                    .FRAME  10
1440   02C0       9468                         SET
1441   02C1       F845                         BLD       Flags, _SIGN
1442   02C2       94E8                         CLT
1443   02C3       F854                         BLD       Flags2, _F64StrInt
1444   02C4       F855                         BLD       Flags2, _F64StrFrac
1445   02C5       F842                         BLD       Flags, _Negative
1446   02C6   940E148C                         CALL      SYSTEM.Long2Str
1447   02C8                                    .FRAME  3
1448   02C8       91DF                         POP       _FPTRHI
1449   02C9       91CF                         POP       _FRAMEPTR
1450   02CA       E218                         LDI       _ACCA, 028h
1451   02CB       931F                         PUSH      _ACCA
1452   02CC       8118                         LDD       _ACCA, Y+000h
1453   02CD       910F                         POP       _ACCB
1454   02CE       1B01                         SUB       _ACCB, _ACCA
1455   02CF       2F10                         MOV       _ACCA, _ACCB
1456   02D0       91FF                         POP       _ACCCHI
1457   02D1       91EF                         POP       _ACCCLO
1458   02D2       8310                         ST        Z, _ACCA
1459   02D3       9623                         ADIW      _FRAMEPTR, 3
1460   02D4                                    .FRAME  0
1461   02D4                                    .LINE     61
1462   0271                                    .BRANCH   17,NoisePlayer.WRITEPARAMSTRSER
1463   02D4   940E0271                         CALL      NoisePlayer.WRITEPARAMSTRSER
1464   02D6            
1465   02D6                                    .ENDBLOCK 62
1466   02D6            NoisePlayer._L0030:
1467   02D6                                    .ENDBLOCK 63
1468   02D6            NoisePlayer.WriteParamLongSer_X:
1469   02D6                                    .LINE     63
1470   0000                                    .BRANCH   19
1471   02D6       9508                         RET
1472   02D7                                    .ENDFUNC  63
1473   02D7            
1474   02D7                                    .FUNC     WriteParamIntSer, 00041h, 00020h
1475   02D7            NoisePlayer.WriteParamIntSer:
1476   02D7                                    .RETURNS   0
1477   02D7                                    .BLOCK    66
1478   02D7                                    .LINE     67
1479   02D7   91000159                         LDS       _ACCB, NoisePlayer.ParamInt
1480   02D9   9110015A                         LDS       _ACCA, NoisePlayer.ParamInt+1
1481   02DB       FF17                         SBRS      _ACCA, 7
1482   02DC       C003                         RJMP      NoisePlayer._L0032
1483   02DD       EF3F                         LDI       _ACCAHI, 0FFh
1484   02DE       EF2F                         LDI       _ACCALO, 0FFh
1485   02DF       C002                         RJMP      NoisePlayer._L0033
1486   02E0            NoisePlayer._L0032:
1487   02E0       2733                         CLR       _ACCAHI
1488   02E1       2722                         CLR       _ACCALO
1489   02E2            NoisePlayer._L0033:
1490   02E2   9300015C                         STS       NOISEPLAYER.PARAMLONG, _ACCB
1491   02E4   9310015D                         STS       NOISEPLAYER.PARAMLONG+1, _ACCA
1492   02E6   9320015E                         STS       NOISEPLAYER.PARAMLONG+2, _ACCALO
1493   02E8   9330015F                         STS       NOISEPLAYER.PARAMLONG+3, _ACCAHI
1494   02EA                                    .LINE     68
1495   0284                                    .BRANCH   17,NoisePlayer.WRITEPARAMLONGSER
1496   02EA   940E0284                         CALL      NoisePlayer.WRITEPARAMLONGSER
1497   02EC            
1498   02EC                                    .ENDBLOCK 69
1499   02EC            NoisePlayer.WriteParamIntSer_X:
1500   02EC                                    .LINE     69
1501   0000                                    .BRANCH   19
1502   02EC       9508                         RET
1503   02ED                                    .ENDFUNC  69
1504   02ED            
1505   02ED                                    .FUNC     WriteParamByteSer, 00047h, 00020h
1506   02ED            NoisePlayer.WriteParamByteSer:
1507   02ED                                    .RETURNS   0
1508   02ED                                    .BLOCK    72
1509   02ED                                    .LINE     73
1510   02ED   91100162                         LDS       _ACCA, NoisePlayer.Parambyte
1511   02EF       2F01                         MOV       _ACCB, _ACCA
1512   02F0       2711                         CLR       _ACCA
1513   02F1   93000159                         STS       NOISEPLAYER.PARAMINT, _ACCB
1514   02F3   9310015A                         STS       NOISEPLAYER.PARAMINT+1, _ACCA
1515   02F5                                    .LINE     74
1516   02D7                                    .BRANCH   17,NoisePlayer.WRITEPARAMINTSER
1517   02F5   940E02D7                         CALL      NoisePlayer.WRITEPARAMINTSER
1518   02F7            
1519   02F7                                    .ENDBLOCK 75
1520   02F7            NoisePlayer.WriteParamByteSer_X:
1521   02F7                                    .LINE     75
1522   0000                                    .BRANCH   19
1523   02F7       9508                         RET
1524   02F8                                    .ENDFUNC  75
1525   02F8            
1526   02F8                                    .FUNC     WriteParamLongSerHex, 0004Dh, 00020h
1527   02F8            NoisePlayer.WriteParamLongSerHex:
1528   02F8                                    .RETURNS   0
1529   02F8                                    .BLOCK    78
1530   02F8                                    .LINE     79
1531   01E5                                    .BRANCH   17,NoisePlayer.WRITECHPREFIX
1532   02F8   940E01E5                         CALL      NoisePlayer.WRITECHPREFIX
1533   02FA            
1534   02FA                                    .LINE     80
1535   02FA       E8EC                         LDI       _ACCCLO, NoisePlayer.ParamStr AND 0FFh
1536   02FB       E0F1                         LDI       _ACCCHI, NoisePlayer.ParamStr SHRB 8
1537   02FC       93EF                         PUSH      _ACCCLO
1538   02FD       93FF                         PUSH      _ACCCHI
1539   02FE       9631                         ADIW      _ACCCLO, 1
1540   02FF       93FA                         ST        -Y, _ACCCHI
1541   0300       93EA                         ST        -Y, _ACCCLO
1542   0301       E218                         LDI       _ACCA, 028h
1543   0302       931A                         ST        -Y, _ACCA
1544   0303       EF17                         LDI       _ACCA, 0FEH ROLB _DEVICE
1545   0304       2241                         AND       Flags, _ACCA
1546   0305       EB1F                         LDI       _ACCA, 0FEH ROLB _EEPROM
1547   0306       2241                         AND       Flags, _ACCA
1548   0307                                    .FRAME  3
1549   0307   9100015C                         LDS       _ACCB, NoisePlayer.ParamLong
1550   0309   9110015D                         LDS       _ACCA, NoisePlayer.ParamLong+1
1551   030B   9120015E                         LDS       _ACCALO, NoisePlayer.ParamLong+2
1552   030D   9130015F                         LDS       _ACCAHI, NoisePlayer.ParamLong+3
1553   030F       93CF                         PUSH      _FRAMEPTR
1554   0310       93DF                         PUSH      _FPTRHI
1555   0311       933A                         ST        -Y, _ACCAHI
1556   0312       932A                         ST        -Y, _ACCALO
1557   0313       931A                         ST        -Y, _ACCA
1558   0314       930A                         ST        -Y, _ACCB
1559   0315                                    .FRAME  7
1560   0315       E010                         LDI       _ACCA, 000h
1561   0316       931A                         ST        -Y, _ACCA
1562   0317       E010                         LDI       _ACCA, 000h
1563   0318       931A                         ST        -Y, _ACCA
1564   0319       E210                         LDI       _ACCA, 020h
1565   031A       931A                         ST        -Y, _ACCA
1566   031B                                    .FRAME  10
1567   031B       9468                         SET
1568   031C       F845                         BLD       Flags, _SIGN
1569   031D       94E8                         CLT
1570   031E       F854                         BLD       Flags2, _F64StrInt
1571   031F       F855                         BLD       Flags2, _F64StrFrac
1572   0320       F842                         BLD       Flags, _Negative
1573   0321   940E148C                         CALL      SYSTEM.Long2Str
1574   0323                                    .FRAME  3
1575   0323       91DF                         POP       _FPTRHI
1576   0324       91CF                         POP       _FRAMEPTR
1577   0325       E218                         LDI       _ACCA, 028h
1578   0326       931F                         PUSH      _ACCA
1579   0327       8118                         LDD       _ACCA, Y+000h
1580   0328       910F                         POP       _ACCB
1581   0329       1B01                         SUB       _ACCB, _ACCA
1582   032A       2F10                         MOV       _ACCA, _ACCB
1583   032B       91FF                         POP       _ACCCHI
1584   032C       91EF                         POP       _ACCCLO
1585   032D       8310                         ST        Z, _ACCA
1586   032E       9623                         ADIW      _FRAMEPTR, 3
1587   032F                                    .FRAME  0
1588   032F                                    .LINE     81
1589   032F       93CF                         PUSH      _FRAMEPTR
1590   0330       93DF                         PUSH      _FPTRHI
1591   0331       E018                         LDI       _ACCA, 1 SHLB _DEVICE
1592   0332       2A41                         OR        Flags, _ACCA
1593   0333       E50A                         LDI       _ACCB, SYSTEM.serout SHRB 1
1594   0334       E112                         LDI       _ACCA, SYSTEM.serout SHRB 9
1595   0335       931A                         ST        -Y, _ACCA
1596   0336       930A                         ST        -Y, _ACCB
1597   0337                                    .FRAME  2
1598   0337       E8EC                         LDI       _ACCCLO, NoisePlayer.ParamStr AND 0FFh
1599   0338       E0F1                         LDI       _ACCCHI, NoisePlayer.ParamStr SHRB 8
1600   0339   940E1442                         CALL      SYSTEM.StrVar2Str
1601   033B       91DF                         POP       _FPTRHI
1602   033C       91CF                         POP       _FRAMEPTR
1603   033D                                    .FRAME  0
1604   033D                                    .LINE     82
1605   033D       E210                         LDI       _ACCA, 020h
1606   033E                                    .FRAME  0
1607   033E   940E125A                         CALL      SYSTEM.SEROUT
1608   0340            
1609   0340                                    .LINE     83
1610   0340       E51B                         LDI       _ACCA, 05Bh
1611   0341                                    .FRAME  0
1612   0341   940E125A                         CALL      SYSTEM.SEROUT
1613   0343            
1614   0343                                    .LINE     84
1615   0343       E214                         LDI       _ACCA, 024h
1616   0344                                    .FRAME  0
1617   0344   940E125A                         CALL      SYSTEM.SEROUT
1618   0346            
1619   0346                                    .LINE     85
1620   0346       E8EC                         LDI       _ACCCLO, NoisePlayer.ParamStr AND 0FFh
1621   0347       E0F1                         LDI       _ACCCHI, NoisePlayer.ParamStr SHRB 8
1622   0348       93EF                         PUSH      _ACCCLO
1623   0349       93FF                         PUSH      _ACCCHI
1624   034A       9631                         ADIW      _ACCCLO, 1
1625   034B       93FA                         ST        -Y, _ACCCHI
1626   034C       93EA                         ST        -Y, _ACCCLO
1627   034D       E218                         LDI       _ACCA, 028h
1628   034E       931A                         ST        -Y, _ACCA
1629   034F       EF17                         LDI       _ACCA, 0FEH ROLB _DEVICE
1630   0350       2241                         AND       Flags, _ACCA
1631   0351       EB1F                         LDI       _ACCA, 0FEH ROLB _EEPROM
1632   0352       2241                         AND       Flags, _ACCA
1633   0353                                    .FRAME  3
1634   0353   9100015C                         LDS       _ACCB, NoisePlayer.ParamLong
1635   0355   9110015D                         LDS       _ACCA, NoisePlayer.ParamLong+1
1636   0357   9120015E                         LDS       _ACCALO, NoisePlayer.ParamLong+2
1637   0359   9130015F                         LDS       _ACCAHI, NoisePlayer.ParamLong+3
1638   035B       01B8                         MOVW      _ACCELO, _ACCB
1639   035C       01C9                         MOVW      _ACCFLO, _ACCALO
1640   035D       2F49                         MOV       _ACCDLO, _ACCFHI
1641   035E   940E16F4                         CALL      SYSTEM.Hex2Str8
1642   0360       2F48                         MOV       _ACCDLO, _ACCFLO
1643   0361   940E16F4                         CALL      SYSTEM.Hex2Str8
1644   0363       2F47                         MOV       _ACCDLO, _ACCEHI
1645   0364   940E16F4                         CALL      SYSTEM.Hex2Str8
1646   0366       2F46                         MOV       _ACCDLO, _ACCELO
1647   0367   940E16F4                         CALL      SYSTEM.Hex2Str8
1648   0369       E218                         LDI       _ACCA, 028h
1649   036A       931F                         PUSH      _ACCA
1650   036B       8118                         LDD       _ACCA, Y+000h
1651   036C       910F                         POP       _ACCB
1652   036D       1B01                         SUB       _ACCB, _ACCA
1653   036E       2F10                         MOV       _ACCA, _ACCB
1654   036F       91FF                         POP       _ACCCHI
1655   0370       91EF                         POP       _ACCCLO
1656   0371       8310                         ST        Z, _ACCA
1657   0372       9623                         ADIW      _FRAMEPTR, 3
1658   0373                                    .FRAME  0
1659   0373                                    .LINE     86
1660   0373       93CF                         PUSH      _FRAMEPTR
1661   0374       93DF                         PUSH      _FPTRHI
1662   0375       E018                         LDI       _ACCA, 1 SHLB _DEVICE
1663   0376       2A41                         OR        Flags, _ACCA
1664   0377       E50A                         LDI       _ACCB, SYSTEM.serout SHRB 1
1665   0378       E112                         LDI       _ACCA, SYSTEM.serout SHRB 9
1666   0379       931A                         ST        -Y, _ACCA
1667   037A       930A                         ST        -Y, _ACCB
1668   037B                                    .FRAME  2
1669   037B       E8EC                         LDI       _ACCCLO, NoisePlayer.ParamStr AND 0FFh
1670   037C       E0F1                         LDI       _ACCCHI, NoisePlayer.ParamStr SHRB 8
1671   037D   940E1442                         CALL      SYSTEM.StrVar2Str
1672   037F       91DF                         POP       _FPTRHI
1673   0380       91CF                         POP       _FRAMEPTR
1674   0381                                    .FRAME  0
1675   0381                                    .LINE     87
1676   0381       E51D                         LDI       _ACCA, 05Dh
1677   0382                                    .FRAME  0
1678   0382   940E125A                         CALL      SYSTEM.SEROUT
1679   0384            
1680   0384                                    .LINE     88
1681   01DE                                    .BRANCH   17,NoisePlayer.SERCRLF
1682   0384   940E01DE                         CALL      NoisePlayer.SERCRLF
1683   0386            
1684   0386                                    .ENDBLOCK 89
1685   0386            NoisePlayer.WriteParamLongSerHex_X:
1686   0386                                    .LINE     89
1687   0000                                    .BRANCH   19
1688   0386       9508                         RET
1689   0387                                    .ENDFUNC  89
1690   0387            
1691   0387                                    .FUNC     XModemRxToDF, 0006Eh, 00020h
1692   0387            NoisePlayer.XModemRxToDF:
1693   0387                                    .RETURNS   0
1694   0387       9764                         SBIW      _FRAMEPTR, 20
1695   0388                                    .BLOCK    119
1696   0388                                    .LINE     120
1697   0388            NoisePlayer._L0035:
1698   0388       E0E2                         LDI       _ACCCLO, _RXINP AND 0FFh
1699   0389       E0F1                         LDI       _ACCCHI, _RXINP SHRB 8
1700   038A       2711                         CLR       _ACCA
1701   038B       94F8                         CLI
1702   038C       9311                         ST        Z+, _ACCA
1703   038D       9311                         ST        Z+, _ACCA
1704   038E       8310                         ST        Z, _ACCA
1705   038F       FC47                         SBRC      Flags, IntFlag
1706   0390       9478                         SEI
1707   0391            
1708   0391                                    .LINE     121
1709   0391       E010                         LDI       _ACCA, 000h
1710   0392       8719                         STD       Y+009h, _ACCA
1711   0393                                    .LINE     123
1712   0393       E010                         LDI       _ACCA, 000h
1713   0394       8B1B                         STD       Y+013h, _ACCA
1714   0395                                    .LINE     124
1715   0395       E010                         LDI       _ACCA, 000h
1716   0396       8B18                         STD       Y+010h, _ACCA
1717   0397                                    .LINE     125
1718   0397       EF1F                         LDI       _ACCA, 0FFh
1719   0398       871F                         STD       Y+00Fh, _ACCA
1720   0399                                    .LINE     126
1721   0399       E000                         LDI       _ACCB, 000000000h AND 0FFh
1722   039A       E010                         LDI       _ACCA, 000000000h SHRB 8
1723   039B       E020                         LDI       _ACCALO, 000000000h SHRB 16
1724   039C       E030                         LDI       _ACCAHI, 000000000h SHRB 24
1725   039D   930001BC                         STS       NOISEPLAYER.BYTECOUNT, _ACCB
1726   039F   931001BD                         STS       NOISEPLAYER.BYTECOUNT+1, _ACCA
1727   03A1   932001BE                         STS       NOISEPLAYER.BYTECOUNT+2, _ACCALO
1728   03A3   933001BF                         STS       NOISEPLAYER.BYTECOUNT+3, _ACCAHI
1729   03A5                                    .LINE     127
1730   03A5       E010                         LDI       _ACCA, 00000h SHRB 8
1731   03A6       E000                         LDI       _ACCB, 00000h AND 0FFh
1732   03A7       871B                         STD       Y+00Bh, _ACCA
1733   03A8       870A                         STD       Y+00Ah, _ACCB
1734   03A9                                    .LINE     128
1735   03A9       E010                         LDI       _ACCA, 00000h SHRB 8
1736   03AA       E000                         LDI       _ACCB, 00000h AND 0FFh
1737   03AB       8319                         STD       Y+001h, _ACCA
1738   03AC       8308                         STD       Y+000h, _ACCB
1739   03AD                                    .LINE     129
1740   03AD       E010                         LDI       _ACCA, 00000h SHRB 8
1741   03AE       E000                         LDI       _ACCB, 00000h AND 0FFh
1742   03AF       831B                         STD       Y+003h, _ACCA
1743   03B0       830A                         STD       Y+002h, _ACCB
1744   03B1                                    .LINE     130
1745   03B1       893F                         LDD       _ACCAHI, Y+017h
1746   03B2       892E                         LDD       _ACCALO, Y+016h
1747   03B3       891D                         LDD       _ACCA, Y+015h
1748   03B4       890C                         LDD       _ACCB, Y+014h
1749   03B5       833F                         STD       Y+007h, _ACCAHI
1750   03B6       832E                         STD       Y+006h, _ACCALO
1751   03B7       831D                         STD       Y+005h, _ACCA
1752   03B8       830C                         STD       Y+004h, _ACCB
1753   03B9            NoisePlayer._L0040:
1754   03B9                                    .BLOCK    131
1755   03B9                                    .LINE     132
1756   03B9       8519                         LDD       _ACCA, Y+009h
1757   03BA       9510                         COM       _ACCA
1758   03BB       2311                         TST       _ACCA
1759   03BF                                    .BRANCH   4,NoisePlayer._L0045
1760   03BC       F411                         BRNE      NoisePlayer._L0045
1761   0403                                    .BRANCH   20,NoisePlayer._L0043
1762   03BD   940C0403                         JMP       NoisePlayer._L0043
1763   03BF            NoisePlayer._L0045:
1764   03BF                                    .BLOCK    132
1765   03BF                                    .LINE     133
1766   03BF       E010                         LDI       _ACCA, 00000h SHRB 8
1767   03C0       E000                         LDI       _ACCB, 00000h AND 0FFh
1768   03C1       871B                         STD       Y+00Bh, _ACCA
1769   03C2       870A                         STD       Y+00Ah, _ACCB
1770   03C3            NoisePlayer._L0046:
1771   03C3                                    .BLOCK    134
1772   03C3                                    .LINE     135
1773   03C3       93CF                         PUSH      _FRAMEPTR
1774   03C4       93DF                         PUSH      _FPTRHI
1775   03C5       01FE                         MOVW      _ACCCLO, _FRAMEPTR
1776   03C6       9673                         ADIW      _ACCCLO, 000013h
1777   03C7       93FA                         ST        -Y, _ACCCHI
1778   03C8       93EA                         ST        -Y, _ACCCLO
1779   03C9                                    .FRAME  2
1780   03C9       E312                         LDI       _ACCA, 032h
1781   03CA       931A                         ST        -Y, _ACCA
1782   03CB                                    .FRAME  3
1783   03CB                                    .FRAME  0
1784   03CB   940E1223                         CALL       SYSTEM.SERINP_TO
1785   03CD       91DF                         POP       _FPTRHI
1786   03CE       91CF                         POP       _FRAMEPTR
1787   03CF            
1788   03CF       8719                         STD       Y+009h, _ACCA
1789   03D0                                    .LINE     136
1790   03D0       8519                         LDD       _ACCA, Y+009h
1791   03D1       2311                         TST       _ACCA
1792   03D5                                    .BRANCH   4,NoisePlayer._L0051
1793   03D2       F411                         BRNE      NoisePlayer._L0051
1794   03EC                                    .BRANCH   20,NoisePlayer._L0049
1795   03D3   940C03EC                         JMP       NoisePlayer._L0049
1796   03D5            NoisePlayer._L0051:
1797   03D5                                    .BLOCK    136
1798   03D5                                    .LINE     137
1799   03D5       891B                         LDD       _ACCA, Y+013h
1800   03D6       3011                         CPI       _ACCA, 001h
1801   03D7       E010                         LDI       _ACCA, 0h
1802   03D8       F409                         BRNE      NoisePlayer._L0052
1803   03D9       EF1F                         SER       _ACCA
1804   03DA            NoisePlayer._L0052:
1805   03DA       931F                         PUSH      _ACCA
1806   03DB       891B                         LDD       _ACCA, Y+013h
1807   03DC       3014                         CPI       _ACCA, 004h
1808   03DD       E010                         LDI       _ACCA, 0h
1809   03DE       F409                         BRNE      NoisePlayer._L0053
1810   03DF       EF1F                         SER       _ACCA
1811   03E0            NoisePlayer._L0053:
1812   03E0       910F                         POP       _ACCB
1813   03E1       2B10                         OR        _ACCA, _ACCB
1814   03E2       2311                         TST       _ACCA
1815   03E6                                    .BRANCH   4,NoisePlayer._L0056
1816   03E3       F411                         BRNE      NoisePlayer._L0056
1817   03EA                                    .BRANCH   20,NoisePlayer._L0054
1818   03E4   940C03EA                         JMP       NoisePlayer._L0054
1819   03E6            NoisePlayer._L0056:
1820   03E6                                    .BLOCK    137
1821   03E6                                    .LINE     138
1822   03E6       E010                         LDI       _ACCA, 00015h SHRB 8
1823   03E7       E105                         LDI       _ACCB, 00015h AND 0FFh
1824   03E8       871B                         STD       Y+00Bh, _ACCA
1825   03E9       870A                         STD       Y+00Ah, _ACCB
1826   03EA                                    .ENDBLOCK 139
1827   03EA            NoisePlayer._L0054:
1828   03EA            NoisePlayer._L0055:
1829   03EA                                    .ENDBLOCK 140
1830   03F6                                    .BRANCH   20,NoisePlayer._L0050
1831   03EA   940C03F6                         JMP       NoisePlayer._L0050
1832   03EC            NoisePlayer._L0049:
1833   03EC                                    .BLOCK    140
1834   03EC                                    .LINE     141
1835   03EC       E115                         LDI       _ACCA, 015h
1836   03ED                                    .FRAME  0
1837   03ED   940E125A                         CALL      SYSTEM.SEROUT
1838   03EF            
1839   03EF                                    .LINE     142
1840   03EF       01FE                         MOVW      _ACCCLO, _FRAMEPTR
1841   03F0       963A                         ADIW      _ACCCLO, 00000Ah
1842   03F1       81A0                         LD        _ACCBLO, Z
1843   03F2       81B1                         LDD       _ACCBHI, Z+1
1844   03F3       9611                         ADIW      _ACCBLO, 1
1845   03F4       83A0                         ST        Z, _ACCBLO
1846   03F5       83B1                         STD       Z+1, _ACCBHI
1847   03F6                                    .ENDBLOCK 143
1848   03F6            NoisePlayer._L0050:
1849   03F6                                    .ENDBLOCK 144
1850   03F6                                    .LINE     144
1851   03F6            NoisePlayer._L0047:
1852   03F6       850A                         LDD       _ACCB, Y+00Ah
1853   03F7       851B                         LDD       _ACCA, Y+00Bh
1854   03F8       3010                         CPI       _ACCA, 000h
1855   03F9       F409                         BRNE      NoisePlayer._L0057
1856   03FA       3104                         CPI       _ACCB, 014h
1857   03FB            NoisePlayer._L0057:
1858   03FB       E010                         LDI       _ACCA, 0h
1859   03FC       F011                         BREQ      NoisePlayer._L0058
1860   03FD       F008                         BRLO      NoisePlayer._L0058
1861   03FE       EF1F                         SER       _ACCA
1862   03FF            NoisePlayer._L0058:
1863   03FF       2311                         TST       _ACCA
1864   0403                                    .BRANCH   4,NoisePlayer._L0059
1865   0400       F411                         BRNE      NoisePlayer._L0059
1866   03C3                                    .BRANCH   20,NoisePlayer._L0046
1867   0401   940C03C3                         JMP       NoisePlayer._L0046
1868   0403            NoisePlayer._L0059:
1869   0403            NoisePlayer._L0048:
1870   0403                                    .ENDBLOCK 145
1871   0403            NoisePlayer._L0043:
1872   0403            NoisePlayer._L0044:
1873   0403                                    .LINE     146
1874   0403       E010                         LDI       _ACCA, 00000h SHRB 8
1875   0404       E000                         LDI       _ACCB, 00000h AND 0FFh
1876   0405       871B                         STD       Y+00Bh, _ACCA
1877   0406       870A                         STD       Y+00Ah, _ACCB
1878   0407                                    .LINE     147
1879   0407       891B                         LDD       _ACCA, Y+013h
1880   0408       3011                         CPI       _ACCA, 001h
1881   0409       E010                         LDI       _ACCA, 0h
1882   040A       F409                         BRNE      NoisePlayer._L0060
1883   040B       EF1F                         SER       _ACCA
1884   040C            NoisePlayer._L0060:
1885   040C       2311                         TST       _ACCA
1886   0410                                    .BRANCH   4,NoisePlayer._L0063
1887   040D       F411                         BRNE      NoisePlayer._L0063
1888   052E                                    .BRANCH   20,NoisePlayer._L0061
1889   040E   940C052E                         JMP       NoisePlayer._L0061
1890   0410            NoisePlayer._L0063:
1891   0410                                    .BLOCK    148
1892   0410                                    .LINE     148
1893   0410       93CF                         PUSH      _FRAMEPTR
1894   0411       93DF                         PUSH      _FPTRHI
1895   0412       01FE                         MOVW      _ACCCLO, _FRAMEPTR
1896   0413       9672                         ADIW      _ACCCLO, 000012h
1897   0414       93FA                         ST        -Y, _ACCCHI
1898   0415       93EA                         ST        -Y, _ACCCLO
1899   0416                                    .FRAME  2
1900   0416       E614                         LDI       _ACCA, 064h
1901   0417       931A                         ST        -Y, _ACCA
1902   0418                                    .FRAME  3
1903   0418                                    .FRAME  0
1904   0418   940E1223                         CALL       SYSTEM.SERINP_TO
1905   041A       91DF                         POP       _FPTRHI
1906   041B       91CF                         POP       _FRAMEPTR
1907   041C            
1908   041C       8718                         STD       Y+008h, _ACCA
1909   041D                                    .LINE     149
1910   041D       93CF                         PUSH      _FRAMEPTR
1911   041E       93DF                         PUSH      _FPTRHI
1912   041F       01FE                         MOVW      _ACCCLO, _FRAMEPTR
1913   0420       9671                         ADIW      _ACCCLO, 000011h
1914   0421       93FA                         ST        -Y, _ACCCHI
1915   0422       93EA                         ST        -Y, _ACCCLO
1916   0423                                    .FRAME  2
1917   0423       E312                         LDI       _ACCA, 032h
1918   0424       931A                         ST        -Y, _ACCA
1919   0425                                    .FRAME  3
1920   0425                                    .FRAME  0
1921   0425   940E1223                         CALL       SYSTEM.SERINP_TO
1922   0427       91DF                         POP       _FPTRHI
1923   0428       91CF                         POP       _FRAMEPTR
1924   0429            
1925   0429       8718                         STD       Y+008h, _ACCA
1926   042A                                    .LINE     150
1927   042A       891A                         LDD       _ACCA, Y+012h
1928   042B       EF0F                         LDI       _ACCB, 0FFh AND 0FFh
1929   042C       1B01                         SUB       _ACCB, _ACCA
1930   042D       2F10                         MOV       _ACCA, _ACCB
1931   042E       931F                         PUSH      _ACCA
1932   042F       8919                         LDD       _ACCA, Y+011h
1933   0430       910F                         POP       _ACCB
1934   0431       1701                         CP        _ACCB, _ACCA
1935   0432       E010                         LDI       _ACCA, 0h
1936   0433       F409                         BRNE      NoisePlayer._L0064
1937   0434       EF1F                         SER       _ACCA
1938   0435            NoisePlayer._L0064:
1939   0435       2311                         TST       _ACCA
1940   0439                                    .BRANCH   4,NoisePlayer._L0067
1941   0436       F411                         BRNE      NoisePlayer._L0067
1942   052C                                    .BRANCH   20,NoisePlayer._L0065
1943   0437   940C052C                         JMP       NoisePlayer._L0065
1944   0439            NoisePlayer._L0067:
1945   0439                                    .BLOCK    151
1946   0439                                    .LINE     151
1947   0439       E010                         LDI       _ACCA, 000h
1948   043A       8B18                         STD       Y+010h, _ACCA
1949   043B                                    .LINE     152
1950   043B                                    .LOOP
1951   043B       E0E8                         LDI       _ACCCLO, NoisePlayer.i AND 0FFh
1952   043C       E0F0                         LDI       _ACCCHI, NoisePlayer.i SHRB 8
1953   043D       93FA                         ST        -Y, _ACCCHI
1954   043E       93EA                         ST        -Y, _ACCCLO
1955   043F                                    .FRAME  2
1956   043F       E010                         LDI       _ACCA, 000h
1957   0440       8310                         ST        Z, _ACCA
1958   0441       E71F                         LDI       _ACCA, 07Fh
1959   0442       931A                         ST        -Y, _ACCA
1960   0443                                    .FRAME  3
1961   0443       8110                         LD        _ACCA, Z
1962   0444            NoisePlayer._L0070:
1963   0444       8108                         LDD       _ACCB, Y+000h
1964   0445       1701                         CP        _ACCB, _ACCA
1965   0446       EF1F                         LDI       _ACCA, 0FFh
1966   0447       F008                         BRLO      NoisePlayer._L0071
1967   0448       2711                         CLR       _ACCA
1968   0449            NoisePlayer._L0071:
1969   0449       2311                         TST       _ACCA
1970   044D                                    .BRANCH   3,NoisePlayer._L0072
1971   044A       F011                         BREQ      NoisePlayer._L0072
1972   0474                                    .BRANCH   20,NoisePlayer._L0069
1973   044B   940C0474                         JMP       NoisePlayer._L0069
1974   044D            NoisePlayer._L0072:
1975   044D                                    .BLOCK    153
1976   044D                                    .LINE     153
1977   044D       93CF                         PUSH      _FRAMEPTR
1978   044E       93DF                         PUSH      _FPTRHI
1979   044F       E0E9                         LDI       _ACCCLO, NoisePlayer.m AND 0FFh
1980   0450       E0F0                         LDI       _ACCCHI, NoisePlayer.m SHRB 8
1981   0451       93FA                         ST        -Y, _ACCCHI
1982   0452       93EA                         ST        -Y, _ACCCLO
1983   0453                                    .FRAME  5
1984   0453       E312                         LDI       _ACCA, 032h
1985   0454       931A                         ST        -Y, _ACCA
1986   0455                                    .FRAME  6
1987   0455                                    .FRAME  3
1988   0455   940E1223                         CALL       SYSTEM.SERINP_TO
1989   0457       91DF                         POP       _FPTRHI
1990   0458       91CF                         POP       _FRAMEPTR
1991   0459            
1992   0459       871B                         STD       Y+00Bh, _ACCA
1993   045A                                    .LINE     154
1994   045A       891B                         LDD       _ACCA, Y+013h
1995   045B       931F                         PUSH      _ACCA
1996   045C       2D19                         MOV       _ACCA, NoisePlayer.m
1997   045D       910F                         POP       _ACCB
1998   045E       0F10                         ADD       _ACCA, _ACCB
1999   045F       8B1B                         STD       Y+013h, _ACCA
2000   0460                                    .LINE     155
2001   0460       2D18                         MOV       _ACCA, NoisePlayer.i
2002   0461       931F                         PUSH      _ACCA
2003   0462       2D19                         MOV       _ACCA, NoisePlayer.m
2004   0463       E2EC                         LDI       _ACCCLO, NoisePlayer.BlockTable AND 0FFh
2005   0464       E0F3                         LDI       _ACCCHI, NoisePlayer.BlockTable SHRB 8
2006   0465       91AF                         POP       _ACCBLO
2007   0466       7FAF                         ANDI      _ACCBLO, 255
2008   0467       27BB                         CLR       _ACCBHI
2009   0468       0FEA                         ADD       _ACCCLO, _ACCBLO
2010   0469       1FFB                         ADC       _ACCCHI, _ACCBHI
2011   046A       8310                         ST        Z, _ACCA
2012   046B                                    .ENDBLOCK 156
2013   046B            NoisePlayer._L0068:
2014   046B                                    .LINE     156
2015   046B       81E9                         LDD       _ACCCLO, Y+001h
2016   046C       81FA                         LDD       _ACCCHI, Y+002h
2017   046D       8110                         LD        _ACCA, Z
2018   046E       9513                         INC       _ACCA
2019   046F       8310                         ST        Z, _ACCA
2020   0470       2311                         TST       _ACCA
2021   0474                                    .BRANCH   3,NoisePlayer._L0069
2022   0471       F011                         BREQ      NoisePlayer._L0069
2023   0444                                    .BRANCH   20,NoisePlayer._L0070
2024   0472   940C0444                         JMP       NoisePlayer._L0070
2025   0474            NoisePlayer._L0069:
2026   0474       9623                         ADIW      _FRAMEPTR, 3
2027   0475                                    .FRAME  0
2028   0475                                    .ENDLOOP
2029   0475                                    .LINE     157
2030   0475       93CF                         PUSH      _FRAMEPTR
2031   0476       93DF                         PUSH      _FPTRHI
2032   0477       01FE                         MOVW      _ACCCLO, _FRAMEPTR
2033   0478       963F                         ADIW      _ACCCLO, 00000Fh
2034   0479       93FA                         ST        -Y, _ACCCHI
2035   047A       93EA                         ST        -Y, _ACCCLO
2036   047B                                    .FRAME  2
2037   047B       E312                         LDI       _ACCA, 032h
2038   047C       931A                         ST        -Y, _ACCA
2039   047D                                    .FRAME  3
2040   047D                                    .FRAME  0
2041   047D   940E1223                         CALL       SYSTEM.SERINP_TO
2042   047F       91DF                         POP       _FPTRHI
2043   0480       91CF                         POP       _FRAMEPTR
2044   0481            
2045   0481       8718                         STD       Y+008h, _ACCA
2046   0482                                    .LINE     160
2047   0482       93CF                         PUSH      _FRAMEPTR
2048   0483       93DF                         PUSH      _FPTRHI
2049   0484       813F                         LDD       _ACCAHI, Y+007h
2050   0485       812E                         LDD       _ACCALO, Y+006h
2051   0486       811D                         LDD       _ACCA, Y+005h
2052   0487       810C                         LDD       _ACCB, Y+004h
2053   0488       933A                         ST        -Y, _ACCAHI
2054   0489       932A                         ST        -Y, _ACCALO
2055   048A       931A                         ST        -Y, _ACCA
2056   048B       930A                         ST        -Y, _ACCB
2057   048C                                    .FRAME  4
2058   048C       E010                         LDI       _ACCA, 00080h SHRB 8
2059   048D       E800                         LDI       _ACCB, 00080h AND 0FFh
2060   048E       931A                         ST        -Y, _ACCA
2061   048F       930A                         ST        -Y, _ACCB
2062   0490                                    .FRAME  6
2063   0490                                    .FRAME  0
2064   00EC                                    .BRANCH   17,NoisePlayer.DFWRITEBLOCK
2065   0490   940E00EC                         CALL       NoisePlayer.DFWRITEBLOCK
2066   0492       91DF                         POP       _FPTRHI
2067   0493       91CF                         POP       _FRAMEPTR
2068   0494            
2069   0494       9510                         COM       _ACCA
2070   0495       2311                         TST       _ACCA
2071   0499                                    .BRANCH   4,NoisePlayer._L0075
2072   0496       F411                         BRNE      NoisePlayer._L0075
2073   04A0                                    .BRANCH   20,NoisePlayer._L0073
2074   0497   940C04A0                         JMP       NoisePlayer._L0073
2075   0499            NoisePlayer._L0075:
2076   0499                                    .BLOCK    161
2077   0499                                    .LINE     161
2078   0499       01FE                         MOVW      _ACCCLO, _FRAMEPTR
2079   049A       9632                         ADIW      _ACCCLO, 000002h
2080   049B       81A0                         LD        _ACCBLO, Z
2081   049C       81B1                         LDD       _ACCBHI, Z+1
2082   049D       9611                         ADIW      _ACCBLO, 1
2083   049E       83A0                         ST        Z, _ACCBLO
2084   049F       83B1                         STD       Z+1, _ACCBHI
2085   04A0                                    .ENDBLOCK 162
2086   04A0            NoisePlayer._L0073:
2087   04A0            NoisePlayer._L0074:
2088   04A0                                    .LINE     165
2089   04A0       93CF                         PUSH      _FRAMEPTR
2090   04A1       93DF                         PUSH      _FPTRHI
2091   04A2       813F                         LDD       _ACCAHI, Y+007h
2092   04A3       812E                         LDD       _ACCALO, Y+006h
2093   04A4       811D                         LDD       _ACCA, Y+005h
2094   04A5       810C                         LDD       _ACCB, Y+004h
2095   04A6       933A                         ST        -Y, _ACCAHI
2096   04A7       932A                         ST        -Y, _ACCALO
2097   04A8       931A                         ST        -Y, _ACCA
2098   04A9       930A                         ST        -Y, _ACCB
2099   04AA                                    .FRAME  4
2100   04AA       E010                         LDI       _ACCA, 00080h SHRB 8
2101   04AB       E800                         LDI       _ACCB, 00080h AND 0FFh
2102   04AC       931A                         ST        -Y, _ACCA
2103   04AD       930A                         ST        -Y, _ACCB
2104   04AE                                    .FRAME  6
2105   04AE       EF1F                         LDI       _ACCA, 0FFh
2106   04AF       931A                         ST        -Y, _ACCA
2107   04B0                                    .FRAME  7
2108   04B0                                    .FRAME  0
2109   0159                                    .BRANCH   17,NoisePlayer.DFREADBLOCK
2110   04B0   940E0159                         CALL      NoisePlayer.DFREADBLOCK
2111   04B2       91DF                         POP       _FPTRHI
2112   04B3       91CF                         POP       _FRAMEPTR
2113   04B4            
2114   04B4                                    .LINE     166
2115   04B4                                    .LOOP
2116   04B4       E0E8                         LDI       _ACCCLO, NoisePlayer.i AND 0FFh
2117   04B5       E0F0                         LDI       _ACCCHI, NoisePlayer.i SHRB 8
2118   04B6       93FA                         ST        -Y, _ACCCHI
2119   04B7       93EA                         ST        -Y, _ACCCLO
2120   04B8                                    .FRAME  2
2121   04B8       E010                         LDI       _ACCA, 000h
2122   04B9       8310                         ST        Z, _ACCA
2123   04BA       E71F                         LDI       _ACCA, 07Fh
2124   04BB       931A                         ST        -Y, _ACCA
2125   04BC                                    .FRAME  3
2126   04BC       8110                         LD        _ACCA, Z
2127   04BD            NoisePlayer._L0078:
2128   04BD       8108                         LDD       _ACCB, Y+000h
2129   04BE       1701                         CP        _ACCB, _ACCA
2130   04BF       EF1F                         LDI       _ACCA, 0FFh
2131   04C0       F008                         BRLO      NoisePlayer._L0079
2132   04C1       2711                         CLR       _ACCA
2133   04C2            NoisePlayer._L0079:
2134   04C2       2311                         TST       _ACCA
2135   04C6                                    .BRANCH   3,NoisePlayer._L0080
2136   04C3       F011                         BREQ      NoisePlayer._L0080
2137   04F0                                    .BRANCH   20,NoisePlayer._L0077
2138   04C4   940C04F0                         JMP       NoisePlayer._L0077
2139   04C6            NoisePlayer._L0080:
2140   04C6                                    .BLOCK    167
2141   04C6                                    .LINE     167
2142   04C6       2D18                         MOV       _ACCA, NoisePlayer.i
2143   04C7       E2EC                         LDI       _ACCCLO, NoisePlayer.VerifyTable AND 0FFh
2144   04C8       E0F2                         LDI       _ACCCHI, NoisePlayer.VerifyTable SHRB 8
2145   04C9       7F1F                         ANDI      _ACCA, 255
2146   04CA       2700                         CLR       _ACCB
2147   04CB       0FE1                         ADD       _ACCCLO, _ACCA
2148   04CC       1FF0                         ADC       _ACCCHI, _ACCB
2149   04CD       8110                         LD        _ACCA, Z
2150   04CE       931F                         PUSH      _ACCA
2151   04CF       2D18                         MOV       _ACCA, NoisePlayer.i
2152   04D0       E2EC                         LDI       _ACCCLO, NoisePlayer.BlockTable AND 0FFh
2153   04D1       E0F3                         LDI       _ACCCHI, NoisePlayer.BlockTable SHRB 8
2154   04D2       7F1F                         ANDI      _ACCA, 255
2155   04D3       2700                         CLR       _ACCB
2156   04D4       0FE1                         ADD       _ACCCLO, _ACCA
2157   04D5       1FF0                         ADC       _ACCCHI, _ACCB
2158   04D6       8110                         LD        _ACCA, Z
2159   04D7       910F                         POP       _ACCB
2160   04D8       1701                         CP        _ACCB, _ACCA
2161   04D9       E010                         LDI       _ACCA, 0h
2162   04DA       F009                         BREQ      NoisePlayer._L0081
2163   04DB       EF1F                         SER       _ACCA
2164   04DC            NoisePlayer._L0081:
2165   04DC       2311                         TST       _ACCA
2166   04E0                                    .BRANCH   4,NoisePlayer._L0084
2167   04DD       F411                         BRNE      NoisePlayer._L0084
2168   04E7                                    .BRANCH   20,NoisePlayer._L0082
2169   04DE   940C04E7                         JMP       NoisePlayer._L0082
2170   04E0            NoisePlayer._L0084:
2171   04E0                                    .BLOCK    167
2172   04E0                                    .LINE     168
2173   04E0       01FE                         MOVW      _ACCCLO, _FRAMEPTR
2174   04E1       9633                         ADIW      _ACCCLO, 000003h
2175   04E2       81A0                         LD        _ACCBLO, Z
2176   04E3       81B1                         LDD       _ACCBHI, Z+1
2177   04E4       9611                         ADIW      _ACCBLO, 1
2178   04E5       83A0                         ST        Z, _ACCBLO
2179   04E6       83B1                         STD       Z+1, _ACCBHI
2180   04E7                                    .ENDBLOCK 169
2181   04E7            NoisePlayer._L0082:
2182   04E7            NoisePlayer._L0083:
2183   04E7                                    .ENDBLOCK 170
2184   04E7            NoisePlayer._L0076:
2185   04E7                                    .LINE     170
2186   04E7       81E9                         LDD       _ACCCLO, Y+001h
2187   04E8       81FA                         LDD       _ACCCHI, Y+002h
2188   04E9       8110                         LD        _ACCA, Z
2189   04EA       9513                         INC       _ACCA
2190   04EB       8310                         ST        Z, _ACCA
2191   04EC       2311                         TST       _ACCA
2192   04F0                                    .BRANCH   3,NoisePlayer._L0077
2193   04ED       F011                         BREQ      NoisePlayer._L0077
2194   04BD                                    .BRANCH   20,NoisePlayer._L0078
2195   04EE   940C04BD                         JMP       NoisePlayer._L0078
2196   04F0            NoisePlayer._L0077:
2197   04F0       9623                         ADIW      _FRAMEPTR, 3
2198   04F1                                    .FRAME  0
2199   04F1                                    .ENDLOOP
2200   04F1                                    .LINE     172
2201   04F1       813F                         LDD       _ACCAHI, Y+007h
2202   04F2       812E                         LDD       _ACCALO, Y+006h
2203   04F3       811D                         LDD       _ACCA, Y+005h
2204   04F4       810C                         LDD       _ACCB, Y+004h
2205   04F5       5800                         SUBI      _ACCB, -000000080h AND 0FFh
2206   04F6       4F1F                         SBCI      _ACCA, -000000080h SHRB 8
2207   04F7       4F2F                         SBCI      _ACCALO, -000000080h SHRB 16
2208   04F8       4F3F                         SBCI      _ACCAHI, -000000080h SHRB 24
2209   04F9       833F                         STD       Y+007h, _ACCAHI
2210   04FA       832E                         STD       Y+006h, _ACCALO
2211   04FB       831D                         STD       Y+005h, _ACCA
2212   04FC       830C                         STD       Y+004h, _ACCB
2213   04FD                                    .LINE     173
2214   04FD   910001BC                         LDS       _ACCB, NoisePlayer.byteCount
2215   04FF   911001BD                         LDS       _ACCA, NoisePlayer.byteCount+1
2216   0501   912001BE                         LDS       _ACCALO, NoisePlayer.byteCount+2
2217   0503   913001BF                         LDS       _ACCAHI, NoisePlayer.byteCount+3
2218   0505       5800                         SUBI      _ACCB, -000000080h AND 0FFh
2219   0506       4F1F                         SBCI      _ACCA, -000000080h SHRB 8
2220   0507       4F2F                         SBCI      _ACCALO, -000000080h SHRB 16
2221   0508       4F3F                         SBCI      _ACCAHI, -000000080h SHRB 24
2222   0509   930001BC                         STS       NOISEPLAYER.BYTECOUNT, _ACCB
2223   050B   931001BD                         STS       NOISEPLAYER.BYTECOUNT+1, _ACCA
2224   050D   932001BE                         STS       NOISEPLAYER.BYTECOUNT+2, _ACCALO
2225   050F   933001BF                         STS       NOISEPLAYER.BYTECOUNT+3, _ACCAHI
2226   0511                                    .LINE     176
2227   0511       8918                         LDD       _ACCA, Y+010h
2228   0512       931F                         PUSH      _ACCA
2229   0513       851F                         LDD       _ACCA, Y+00Fh
2230   0514       910F                         POP       _ACCB
2231   0515       1701                         CP        _ACCB, _ACCA
2232   0516       E010                         LDI       _ACCA, 0h
2233   0517       F409                         BRNE      NoisePlayer._L0085
2234   0518       EF1F                         SER       _ACCA
2235   0519            NoisePlayer._L0085:
2236   0519       2311                         TST       _ACCA
2237   051D                                    .BRANCH   4,NoisePlayer._L0088
2238   051A       F411                         BRNE      NoisePlayer._L0088
2239   0522                                    .BRANCH   20,NoisePlayer._L0086
2240   051B   940C0522                         JMP       NoisePlayer._L0086
2241   051D            NoisePlayer._L0088:
2242   051D                                    .BLOCK    176
2243   051D                                    .LINE     177
2244   051D       E016                         LDI       _ACCA, 006h
2245   051E                                    .FRAME  0
2246   051E   940E125A                         CALL      SYSTEM.SEROUT
2247   0520            
2248   0520                                    .ENDBLOCK 178
2249   052C                                    .BRANCH   20,NoisePlayer._L0087
2250   0520   940C052C                         JMP       NoisePlayer._L0087
2251   0522            NoisePlayer._L0086:
2252   0522                                    .BLOCK    178
2253   0522                                    .LINE     179
2254   0522       01FE                         MOVW      _ACCCLO, _FRAMEPTR
2255   0523       963A                         ADIW      _ACCCLO, 00000Ah
2256   0524       81A0                         LD        _ACCBLO, Z
2257   0525       81B1                         LDD       _ACCBHI, Z+1
2258   0526       9611                         ADIW      _ACCBLO, 1
2259   0527       83A0                         ST        Z, _ACCBLO
2260   0528       83B1                         STD       Z+1, _ACCBHI
2261   0529                                    .LINE     180
2262   0529       E115                         LDI       _ACCA, 015h
2263   052A                                    .FRAME  0
2264   052A   940E125A                         CALL      SYSTEM.SEROUT
2265   052C            
2266   052C                                    .ENDBLOCK 181
2267   052C            NoisePlayer._L0087:
2268   052C                                    .ENDBLOCK 182
2269   052C            NoisePlayer._L0065:
2270   052C            NoisePlayer._L0066:
2271   052C                                    .LINE     183
2272   052C       E010                         LDI       _ACCA, 000h
2273   052D       8B1B                         STD       Y+013h, _ACCA
2274   052E                                    .ENDBLOCK 184
2275   052E            NoisePlayer._L0061:
2276   052E            NoisePlayer._L0062:
2277   052E                                    .LINE     185
2278   052E       E010                         LDI       _ACCA, 000h
2279   052F       8719                         STD       Y+009h, _ACCA
2280   0530                                    .ENDBLOCK 186
2281   0530                                    .LINE     186
2282   0530            NoisePlayer._L0041:
2283   0530       891B                         LDD       _ACCA, Y+013h
2284   0531       3014                         CPI       _ACCA, 004h
2285   0532       E010                         LDI       _ACCA, 0h
2286   0533       F409                         BRNE      NoisePlayer._L0089
2287   0534       EF1F                         SER       _ACCA
2288   0535            NoisePlayer._L0089:
2289   0535       931F                         PUSH      _ACCA
2290   0536       850A                         LDD       _ACCB, Y+00Ah
2291   0537       851B                         LDD       _ACCA, Y+00Bh
2292   0538       3010                         CPI       _ACCA, 000h
2293   0539       F409                         BRNE      NoisePlayer._L0090
2294   053A       3005                         CPI       _ACCB, 005h
2295   053B            NoisePlayer._L0090:
2296   053B       E010                         LDI       _ACCA, 0h
2297   053C       F011                         BREQ      NoisePlayer._L0091
2298   053D       F008                         BRLO      NoisePlayer._L0091
2299   053E       EF1F                         SER       _ACCA
2300   053F            NoisePlayer._L0091:
2301   053F       910F                         POP       _ACCB
2302   0540       2B10                         OR        _ACCA, _ACCB
2303   0541       2311                         TST       _ACCA
2304   0545                                    .BRANCH   4,NoisePlayer._L0092
2305   0542       F411                         BRNE      NoisePlayer._L0092
2306   03B9                                    .BRANCH   20,NoisePlayer._L0040
2307   0543   940C03B9                         JMP       NoisePlayer._L0040
2308   0545            NoisePlayer._L0092:
2309   0545            NoisePlayer._L0042:
2310   0545                                    .LINE     187
2311   0545       E01D                         LDI       _ACCA, 00Dh
2312   0546                                    .FRAME  0
2313   0546   940E125A                         CALL      SYSTEM.SEROUT
2314   0548            
2315   0548                                    .LINE     188
2316   0548       93CF                         PUSH      _FRAMEPTR
2317   0549       93DF                         PUSH      _FPTRHI
2318   054A       01FE                         MOVW      _ACCCLO, _FRAMEPTR
2319   054B       9673                         ADIW      _ACCCLO, 000013h
2320   054C       93FA                         ST        -Y, _ACCCHI
2321   054D       93EA                         ST        -Y, _ACCCLO
2322   054E                                    .FRAME  2
2323   054E       E312                         LDI       _ACCA, 032h
2324   054F       931A                         ST        -Y, _ACCA
2325   0550                                    .FRAME  3
2326   0550                                    .FRAME  0
2327   0550   940E1223                         CALL       SYSTEM.SERINP_TO
2328   0552       91DF                         POP       _FPTRHI
2329   0553       91CF                         POP       _FRAMEPTR
2330   0554            
2331   0554       8718                         STD       Y+008h, _ACCA
2332   0555                                    .LINE     189
2333   0555       E016                         LDI       _ACCA, 006h
2334   0556                                    .FRAME  0
2335   0556   940E125A                         CALL      SYSTEM.SEROUT
2336   0558            
2337   0558                                    .LINE     190
2338   0558   910001BC                         LDS       _ACCB, NoisePlayer.byteCount
2339   055A   911001BD                         LDS       _ACCA, NoisePlayer.byteCount+1
2340   055C   912001BE                         LDS       _ACCALO, NoisePlayer.byteCount+2
2341   055E   913001BF                         LDS       _ACCAHI, NoisePlayer.byteCount+3
2342   0560   9300015C                         STS       NOISEPLAYER.PARAMLONG, _ACCB
2343   0562   9310015D                         STS       NOISEPLAYER.PARAMLONG+1, _ACCA
2344   0564   9320015E                         STS       NOISEPLAYER.PARAMLONG+2, _ACCALO
2345   0566   9330015F                         STS       NOISEPLAYER.PARAMLONG+3, _ACCAHI
2346   0568                                    .LINE     191
2347   0568       850A                         LDD       _ACCB, Y+00Ah
2348   0569       851B                         LDD       _ACCA, Y+00Bh
2349   056A       3010                         CPI       _ACCA, 000h
2350   056B       F409                         BRNE      NoisePlayer._L0093
2351   056C       3005                         CPI       _ACCB, 005h
2352   056D            NoisePlayer._L0093:
2353   056D       E010                         LDI       _ACCA, 0h
2354   056E       F011                         BREQ      NoisePlayer._L0094
2355   056F       F008                         BRLO      NoisePlayer._L0094
2356   0570       EF1F                         SER       _ACCA
2357   0571            NoisePlayer._L0094:
2358   0571       2311                         TST       _ACCA
2359   0575                                    .BRANCH   4,NoisePlayer._L0097
2360   0572       F411                         BRNE      NoisePlayer._L0097
2361   0597                                    .BRANCH   20,NoisePlayer._L0095
2362   0573   940C0597                         JMP       NoisePlayer._L0095
2363   0575            NoisePlayer._L0097:
2364   0575                                    .BLOCK    191
2365   0575                                    .LINE     192
2366   0575       EF0F                         LDI       _ACCB, 0FFFFFFFFh AND 0FFh
2367   0576       EF1F                         LDI       _ACCA, 0FFFFFFFFh SHRB 8
2368   0577       EF2F                         LDI       _ACCALO, 0FFFFFFFFh SHRB 16
2369   0578       EF3F                         LDI       _ACCAHI, 0FFFFFFFFh SHRB 24
2370   0579   9300015C                         STS       NOISEPLAYER.PARAMLONG, _ACCB
2371   057B   9310015D                         STS       NOISEPLAYER.PARAMLONG+1, _ACCA
2372   057D   9320015E                         STS       NOISEPLAYER.PARAMLONG+2, _ACCALO
2373   057F   9330015F                         STS       NOISEPLAYER.PARAMLONG+3, _ACCAHI
2374   0581                                    .LINE     193
2375   01E5                                    .BRANCH   17,NoisePlayer.WRITECHPREFIX
2376   0581   940E01E5                         CALL      NoisePlayer.WRITECHPREFIX
2377   0583            
2378   0583                                    .LINE     194
2379   0583       93CF                         PUSH      _FRAMEPTR
2380   0584       93DF                         PUSH      _FPTRHI
2381   0585       E018                         LDI       _ACCA, 1 SHLB _DEVICE
2382   0586       2A41                         OR        Flags, _ACCA
2383   0587       E50A                         LDI       _ACCB, SYSTEM.serout SHRB 1
2384   0588       E112                         LDI       _ACCA, SYSTEM.serout SHRB 9
2385   0589       931A                         ST        -Y, _ACCA
2386   058A       930A                         ST        -Y, _ACCB
2387   058B                                    .FRAME  2
2388   058B       E7EF                         LDI       _ACCCLO, $St_String3 AND 0FFh
2389   058C       E2FF                         LDI       _ACCCHI, $St_String3 SHRB 8
2390   058D   940E1439                         CALL      SYSTEM.StrConst2Str
2391   058F            NoisePlayer._L0098:
2392   058F       E01D                         LDI       _ACCA, 00Dh
2393   0590   940E1701                         CALL      SYSTEM.Char2Str
2394   0592       E01A                         LDI       _ACCA, 00Ah
2395   0593   940E1701                         CALL      SYSTEM.Char2Str
2396   0595       91DF                         POP       _FPTRHI
2397   0596       91CF                         POP       _FRAMEPTR
2398   0597                                    .FRAME  0
2399   0597                                    .ENDBLOCK 195
2400   0597            NoisePlayer._L0095:
2401   0597            NoisePlayer._L0096:
2402   0597                                    .LINE     196
2403   0597       851F                         LDD       _ACCA, Y+00Fh
2404   0598       931F                         PUSH      _ACCA
2405   0599       8918                         LDD       _ACCA, Y+010h
2406   059A       910F                         POP       _ACCB
2407   059B       1701                         CP        _ACCB, _ACCA
2408   059C       E010                         LDI       _ACCA, 0h
2409   059D       F009                         BREQ      NoisePlayer._L0099
2410   059E       EF1F                         SER       _ACCA
2411   059F            NoisePlayer._L0099:
2412   059F       2311                         TST       _ACCA
2413   05A3                                    .BRANCH   4,NoisePlayer._L0102
2414   05A0       F411                         BRNE      NoisePlayer._L0102
2415   05C5                                    .BRANCH   20,NoisePlayer._L0100
2416   05A1   940C05C5                         JMP       NoisePlayer._L0100
2417   05A3            NoisePlayer._L0102:
2418   05A3                                    .BLOCK    196
2419   05A3                                    .LINE     197
2420   05A3       EF0F                         LDI       _ACCB, 0FFFFFFFFh AND 0FFh
2421   05A4       EF1F                         LDI       _ACCA, 0FFFFFFFFh SHRB 8
2422   05A5       EF2F                         LDI       _ACCALO, 0FFFFFFFFh SHRB 16
2423   05A6       EF3F                         LDI       _ACCAHI, 0FFFFFFFFh SHRB 24
2424   05A7   9300015C                         STS       NOISEPLAYER.PARAMLONG, _ACCB
2425   05A9   9310015D                         STS       NOISEPLAYER.PARAMLONG+1, _ACCA
2426   05AB   9320015E                         STS       NOISEPLAYER.PARAMLONG+2, _ACCALO
2427   05AD   9330015F                         STS       NOISEPLAYER.PARAMLONG+3, _ACCAHI
2428   05AF                                    .LINE     198
2429   01E5                                    .BRANCH   17,NoisePlayer.WRITECHPREFIX
2430   05AF   940E01E5                         CALL      NoisePlayer.WRITECHPREFIX
2431   05B1            
2432   05B1                                    .LINE     199
2433   05B1       93CF                         PUSH      _FRAMEPTR
2434   05B2       93DF                         PUSH      _FPTRHI
2435   05B3       E018                         LDI       _ACCA, 1 SHLB _DEVICE
2436   05B4       2A41                         OR        Flags, _ACCA
2437   05B5       E50A                         LDI       _ACCB, SYSTEM.serout SHRB 1
2438   05B6       E112                         LDI       _ACCA, SYSTEM.serout SHRB 9
2439   05B7       931A                         ST        -Y, _ACCA
2440   05B8       930A                         ST        -Y, _ACCB
2441   05B9                                    .FRAME  2
2442   05B9       E9E3                         LDI       _ACCCLO, $St_String4 AND 0FFh
2443   05BA       E2FF                         LDI       _ACCCHI, $St_String4 SHRB 8
2444   05BB   940E1439                         CALL      SYSTEM.StrConst2Str
2445   05BD            NoisePlayer._L0103:
2446   05BD       E01D                         LDI       _ACCA, 00Dh
2447   05BE   940E1701                         CALL      SYSTEM.Char2Str
2448   05C0       E01A                         LDI       _ACCA, 00Ah
2449   05C1   940E1701                         CALL      SYSTEM.Char2Str
2450   05C3       91DF                         POP       _FPTRHI
2451   05C4       91CF                         POP       _FRAMEPTR
2452   05C5                                    .FRAME  0
2453   05C5                                    .ENDBLOCK 200
2454   05C5            NoisePlayer._L0100:
2455   05C5            NoisePlayer._L0101:
2456   05C5                                    .LINE     201
2457   05C5       8108                         LDD       _ACCB, Y+000h
2458   05C6       8119                         LDD       _ACCA, Y+001h
2459   05C7       3010                         CPI       _ACCA, 000h
2460   05C8       F409                         BRNE      NoisePlayer._L0104
2461   05C9       3000                         CPI       _ACCB, 000h
2462   05CA            NoisePlayer._L0104:
2463   05CA       E010                         LDI       _ACCA, 0h
2464   05CB       F009                         BREQ      NoisePlayer._L0105
2465   05CC       EF1F                         SER       _ACCA
2466   05CD            NoisePlayer._L0105:
2467   05CD       2311                         TST       _ACCA
2468   05D1                                    .BRANCH   4,NoisePlayer._L0108
2469   05CE       F411                         BRNE      NoisePlayer._L0108
2470   0622                                    .BRANCH   20,NoisePlayer._L0106
2471   05CF   940C0622                         JMP       NoisePlayer._L0106
2472   05D1            NoisePlayer._L0108:
2473   05D1                                    .BLOCK    201
2474   05D1                                    .LINE     202
2475   05D1       EF0F                         LDI       _ACCB, 0FFFFFFFFh AND 0FFh
2476   05D2       EF1F                         LDI       _ACCA, 0FFFFFFFFh SHRB 8
2477   05D3       EF2F                         LDI       _ACCALO, 0FFFFFFFFh SHRB 16
2478   05D4       EF3F                         LDI       _ACCAHI, 0FFFFFFFFh SHRB 24
2479   05D5   9300015C                         STS       NOISEPLAYER.PARAMLONG, _ACCB
2480   05D7   9310015D                         STS       NOISEPLAYER.PARAMLONG+1, _ACCA
2481   05D9   9320015E                         STS       NOISEPLAYER.PARAMLONG+2, _ACCALO
2482   05DB   9330015F                         STS       NOISEPLAYER.PARAMLONG+3, _ACCAHI
2483   05DD                                    .LINE     203
2484   01E5                                    .BRANCH   17,NoisePlayer.WRITECHPREFIX
2485   05DD   940E01E5                         CALL      NoisePlayer.WRITECHPREFIX
2486   05DF            
2487   05DF                                    .LINE     204
2488   05DF       93CF                         PUSH      _FRAMEPTR
2489   05E0       93DF                         PUSH      _FPTRHI
2490   05E1       E018                         LDI       _ACCA, 1 SHLB _DEVICE
2491   05E2       2A41                         OR        Flags, _ACCA
2492   05E3       E50A                         LDI       _ACCB, SYSTEM.serout SHRB 1
2493   05E4       E112                         LDI       _ACCA, SYSTEM.serout SHRB 9
2494   05E5       931A                         ST        -Y, _ACCA
2495   05E6       930A                         ST        -Y, _ACCB
2496   05E7                                    .FRAME  2
2497   05E7       EAEE                         LDI       _ACCCLO, $St_String5 AND 0FFh
2498   05E8       E2FF                         LDI       _ACCCHI, $St_String5 SHRB 8
2499   05E9   940E1439                         CALL      SYSTEM.StrConst2Str
2500   05EB            NoisePlayer._L0109:
2501   05EB       91DF                         POP       _FPTRHI
2502   05EC       91CF                         POP       _FRAMEPTR
2503   05ED                                    .FRAME  0
2504   05ED                                    .LINE     205
2505   05ED       93CF                         PUSH      _FRAMEPTR
2506   05EE       93DF                         PUSH      _FPTRHI
2507   05EF       E018                         LDI       _ACCA, 1 SHLB _DEVICE
2508   05F0       2A41                         OR        Flags, _ACCA
2509   05F1       E50A                         LDI       _ACCB, SYSTEM.serout SHRB 1
2510   05F2       E112                         LDI       _ACCA, SYSTEM.serout SHRB 9
2511   05F3       931A                         ST        -Y, _ACCA
2512   05F4       930A                         ST        -Y, _ACCB
2513   05F5                                    .FRAME  2
2514   05F5       810A                         LDD       _ACCB, Y+002h
2515   05F6       811B                         LDD       _ACCA, Y+003h
2516   05F7       93CF                         PUSH      _FRAMEPTR
2517   05F8       93DF                         PUSH      _FPTRHI
2518   05F9       931A                         ST        -Y, _ACCA
2519   05FA       930A                         ST        -Y, _ACCB
2520   05FB                                    .FRAME  4
2521   05FB       E010                         LDI       _ACCA, 000h
2522   05FC       931A                         ST        -Y, _ACCA
2523   05FD       E010                         LDI       _ACCA, 000h
2524   05FE       931A                         ST        -Y, _ACCA
2525   05FF       E210                         LDI       _ACCA, 020h
2526   0600       931A                         ST        -Y, _ACCA
2527   0601                                    .FRAME  7
2528   0601       9468                         SET
2529   0602       F843                         BLD       Flags, _DEVICE
2530   0603       94E8                         CLT
2531   0604       F845                         BLD       Flags, _SIGN
2532   0605       94E8                         CLT
2533   0606       F854                         BLD       Flags2, _F64StrInt
2534   0607       F855                         BLD       Flags2, _F64StrFrac
2535   0608   940E1685                         CALL      SYSTEM.Int2Str
2536   060A                                    .FRAME  2
2537   060A       91DF                         POP       _FPTRHI
2538   060B       91CF                         POP       _FRAMEPTR
2539   060C       91DF                         POP       _FPTRHI
2540   060D       91CF                         POP       _FRAMEPTR
2541   060E                                    .FRAME  0
2542   060E                                    .LINE     206
2543   060E       93CF                         PUSH      _FRAMEPTR
2544   060F       93DF                         PUSH      _FPTRHI
2545   0610       E018                         LDI       _ACCA, 1 SHLB _DEVICE
2546   0611       2A41                         OR        Flags, _ACCA
2547   0612       E50A                         LDI       _ACCB, SYSTEM.serout SHRB 1
2548   0613       E112                         LDI       _ACCA, SYSTEM.serout SHRB 9
2549   0614       931A                         ST        -Y, _ACCA
2550   0615       930A                         ST        -Y, _ACCB
2551   0616                                    .FRAME  2
2552   0616       ECE4                         LDI       _ACCCLO, $St_String6 AND 0FFh
2553   0617       E2FF                         LDI       _ACCCHI, $St_String6 SHRB 8
2554   0618   940E1439                         CALL      SYSTEM.StrConst2Str
2555   061A            NoisePlayer._L0110:
2556   061A       E01D                         LDI       _ACCA, 00Dh
2557   061B   940E1701                         CALL      SYSTEM.Char2Str
2558   061D       E01A                         LDI       _ACCA, 00Ah
2559   061E   940E1701                         CALL      SYSTEM.Char2Str
2560   0620       91DF                         POP       _FPTRHI
2561   0621       91CF                         POP       _FRAMEPTR
2562   0622                                    .FRAME  0
2563   0622                                    .ENDBLOCK 207
2564   0622            NoisePlayer._L0106:
2565   0622            NoisePlayer._L0107:
2566   0622                                    .LINE     208
2567   0622       810A                         LDD       _ACCB, Y+002h
2568   0623       811B                         LDD       _ACCA, Y+003h
2569   0624       3010                         CPI       _ACCA, 000h
2570   0625       F409                         BRNE      NoisePlayer._L0111
2571   0626       3000                         CPI       _ACCB, 000h
2572   0627            NoisePlayer._L0111:
2573   0627       E010                         LDI       _ACCA, 0h
2574   0628       F009                         BREQ      NoisePlayer._L0112
2575   0629       EF1F                         SER       _ACCA
2576   062A            NoisePlayer._L0112:
2577   062A       2311                         TST       _ACCA
2578   062E                                    .BRANCH   4,NoisePlayer._L0115
2579   062B       F411                         BRNE      NoisePlayer._L0115
2580   067F                                    .BRANCH   20,NoisePlayer._L0113
2581   062C   940C067F                         JMP       NoisePlayer._L0113
2582   062E            NoisePlayer._L0115:
2583   062E                                    .BLOCK    208
2584   062E                                    .LINE     209
2585   062E       EF0F                         LDI       _ACCB, 0FFFFFFFFh AND 0FFh
2586   062F       EF1F                         LDI       _ACCA, 0FFFFFFFFh SHRB 8
2587   0630       EF2F                         LDI       _ACCALO, 0FFFFFFFFh SHRB 16
2588   0631       EF3F                         LDI       _ACCAHI, 0FFFFFFFFh SHRB 24
2589   0632   9300015C                         STS       NOISEPLAYER.PARAMLONG, _ACCB
2590   0634   9310015D                         STS       NOISEPLAYER.PARAMLONG+1, _ACCA
2591   0636   9320015E                         STS       NOISEPLAYER.PARAMLONG+2, _ACCALO
2592   0638   9330015F                         STS       NOISEPLAYER.PARAMLONG+3, _ACCAHI
2593   063A                                    .LINE     210
2594   01E5                                    .BRANCH   17,NoisePlayer.WRITECHPREFIX
2595   063A   940E01E5                         CALL      NoisePlayer.WRITECHPREFIX
2596   063C            
2597   063C                                    .LINE     211
2598   063C       93CF                         PUSH      _FRAMEPTR
2599   063D       93DF                         PUSH      _FPTRHI
2600   063E       E018                         LDI       _ACCA, 1 SHLB _DEVICE
2601   063F       2A41                         OR        Flags, _ACCA
2602   0640       E50A                         LDI       _ACCB, SYSTEM.serout SHRB 1
2603   0641       E112                         LDI       _ACCA, SYSTEM.serout SHRB 9
2604   0642       931A                         ST        -Y, _ACCA
2605   0643       930A                         ST        -Y, _ACCB
2606   0644                                    .FRAME  2
2607   0644       EDE5                         LDI       _ACCCLO, $St_String7 AND 0FFh
2608   0645       E2FF                         LDI       _ACCCHI, $St_String7 SHRB 8
2609   0646   940E1439                         CALL      SYSTEM.StrConst2Str
2610   0648            NoisePlayer._L0116:
2611   0648       91DF                         POP       _FPTRHI
2612   0649       91CF                         POP       _FRAMEPTR
2613   064A                                    .FRAME  0
2614   064A                                    .LINE     212
2615   064A       93CF                         PUSH      _FRAMEPTR
2616   064B       93DF                         PUSH      _FPTRHI
2617   064C       E018                         LDI       _ACCA, 1 SHLB _DEVICE
2618   064D       2A41                         OR        Flags, _ACCA
2619   064E       E50A                         LDI       _ACCB, SYSTEM.serout SHRB 1
2620   064F       E112                         LDI       _ACCA, SYSTEM.serout SHRB 9
2621   0650       931A                         ST        -Y, _ACCA
2622   0651       930A                         ST        -Y, _ACCB
2623   0652                                    .FRAME  2
2624   0652       810C                         LDD       _ACCB, Y+004h
2625   0653       811D                         LDD       _ACCA, Y+005h
2626   0654       93CF                         PUSH      _FRAMEPTR
2627   0655       93DF                         PUSH      _FPTRHI
2628   0656       931A                         ST        -Y, _ACCA
2629   0657       930A                         ST        -Y, _ACCB
2630   0658                                    .FRAME  4
2631   0658       E010                         LDI       _ACCA, 000h
2632   0659       931A                         ST        -Y, _ACCA
2633   065A       E010                         LDI       _ACCA, 000h
2634   065B       931A                         ST        -Y, _ACCA
2635   065C       E210                         LDI       _ACCA, 020h
2636   065D       931A                         ST        -Y, _ACCA
2637   065E                                    .FRAME  7
2638   065E       9468                         SET
2639   065F       F843                         BLD       Flags, _DEVICE
2640   0660       94E8                         CLT
2641   0661       F845                         BLD       Flags, _SIGN
2642   0662       94E8                         CLT
2643   0663       F854                         BLD       Flags2, _F64StrInt
2644   0664       F855                         BLD       Flags2, _F64StrFrac
2645   0665   940E1685                         CALL      SYSTEM.Int2Str
2646   0667                                    .FRAME  2
2647   0667       91DF                         POP       _FPTRHI
2648   0668       91CF                         POP       _FRAMEPTR
2649   0669       91DF                         POP       _FPTRHI
2650   066A       91CF                         POP       _FRAMEPTR
2651   066B                                    .FRAME  0
2652   066B                                    .LINE     213
2653   066B       93CF                         PUSH      _FRAMEPTR
2654   066C       93DF                         PUSH      _FPTRHI
2655   066D       E018                         LDI       _ACCA, 1 SHLB _DEVICE
2656   066E       2A41                         OR        Flags, _ACCA
2657   066F       E50A                         LDI       _ACCB, SYSTEM.serout SHRB 1
2658   0670       E112                         LDI       _ACCA, SYSTEM.serout SHRB 9
2659   0671       931A                         ST        -Y, _ACCA
2660   0672       930A                         ST        -Y, _ACCB
2661   0673                                    .FRAME  2
2662   0673       ECE4                         LDI       _ACCCLO, $St_String6 AND 0FFh
2663   0674       E2FF                         LDI       _ACCCHI, $St_String6 SHRB 8
2664   0675   940E1439                         CALL      SYSTEM.StrConst2Str
2665   0677            NoisePlayer._L0117:
2666   0677       E01D                         LDI       _ACCA, 00Dh
2667   0678   940E1701                         CALL      SYSTEM.Char2Str
2668   067A       E01A                         LDI       _ACCA, 00Ah
2669   067B   940E1701                         CALL      SYSTEM.Char2Str
2670   067D       91DF                         POP       _FPTRHI
2671   067E       91CF                         POP       _FRAMEPTR
2672   067F                                    .FRAME  0
2673   067F                                    .ENDBLOCK 214
2674   067F            NoisePlayer._L0113:
2675   067F            NoisePlayer._L0114:
2676   067F                                    .ENDBLOCK 215
2677   067F            NoisePlayer.XModemRxToDF_X:
2678   067F                                    .LINE     215
2679   0000                                    .BRANCH   19
2680   067F       9508                         RET
2681   0680                                    .ENDFUNC  215
2682   0680            
2683   0680            
2684   0680                                    .FILE     E:\DROPBOX\NOISEPLAYER\AVR\NoisePlayer.pas
2685   0680                                    .FUNC     DF_checkprotected, 000E8h, 00020h
2686   0680            NoisePlayer.DF_checkprotected:
2687   0680                                    .RETURNS   1
2688   0680                                    .BLOCK    233
2689   0680                                    .LINE     234
2690   004F                                    .BRANCH   17,NoisePlayer.DF_STATUS
2691   0680   940E004F                         CALL       NoisePlayer.DF_STATUS
2692   0682            
2693   0682       7E1F                         ANDI      _ACCA, 0EFh
2694   0683       3010                         CPI       _ACCA, 000h
2695   0684       E010                         LDI       _ACCA, 0h
2696   0685       F009                         BREQ      NoisePlayer._L0118
2697   0686       EF1F                         SER       _ACCA
2698   0687            NoisePlayer._L0118:
2699   0687       2311                         TST       _ACCA
2700   068B                                    .BRANCH   4,NoisePlayer._L0121
2701   0688       F411                         BRNE      NoisePlayer._L0121
2702   06A6                                    .BRANCH   20,NoisePlayer._L0119
2703   0689   940C06A6                         JMP       NoisePlayer._L0119
2704   068B            NoisePlayer._L0121:
2705   068B                                    .BLOCK    234
2706   068B                                    .LINE     235
2707   01E5                                    .BRANCH   17,NoisePlayer.WRITECHPREFIX
2708   068B   940E01E5                         CALL      NoisePlayer.WRITECHPREFIX
2709   068D            
2710   068D                                    .LINE     236
2711   068D       93CF                         PUSH      _FRAMEPTR
2712   068E       93DF                         PUSH      _FPTRHI
2713   068F       E018                         LDI       _ACCA, 1 SHLB _DEVICE
2714   0690       2A41                         OR        Flags, _ACCA
2715   0691       E50A                         LDI       _ACCB, SYSTEM.SerOut SHRB 1
2716   0692       E112                         LDI       _ACCA, SYSTEM.SerOut SHRB 9
2717   0693       931A                         ST        -Y, _ACCA
2718   0694       930A                         ST        -Y, _ACCB
2719   0695                                    .FRAME  2
2720   0695       EEEA                         LDI       _ACCCLO, $St_String8 AND 0FFh
2721   0696       E2FF                         LDI       _ACCCHI, $St_String8 SHRB 8
2722   0697   940E1439                         CALL      SYSTEM.StrConst2Str
2723   0699            NoisePlayer._L0122:
2724   0699       E01D                         LDI       _ACCA, 00Dh
2725   069A   940E1701                         CALL      SYSTEM.Char2Str
2726   069C       E01A                         LDI       _ACCA, 00Ah
2727   069D   940E1701                         CALL      SYSTEM.Char2Str
2728   069F       91DF                         POP       _FPTRHI
2729   06A0       91CF                         POP       _FRAMEPTR
2730   06A1                                    .FRAME  0
2731   06A1                                    .LINE     237
2732   06A1       EF1F                         LDI       _ACCA, 0FFh
2733   06A9                                    .BRANCH   20,NoisePlayer.DF_checkprotected_X
2734   06A2   940C06A9                         JMP       NoisePlayer.DF_checkprotected_X
2735   06A4                                    .ENDBLOCK 238
2736   06A9                                    .BRANCH   20,NoisePlayer._L0120
2737   06A4   940C06A9                         JMP       NoisePlayer._L0120
2738   06A6            NoisePlayer._L0119:
2739   06A6                                    .BLOCK    238
2740   06A6                                    .LINE     239
2741   06A6       E010                         LDI       _ACCA, 000h
2742   06A9                                    .BRANCH   20,NoisePlayer.DF_checkprotected_X
2743   06A7   940C06A9                         JMP       NoisePlayer.DF_checkprotected_X
2744   06A9                                    .ENDBLOCK 240
2745   06A9            NoisePlayer._L0120:
2746   06A9                                    .ENDBLOCK 241
2747   06A9            NoisePlayer.DF_checkprotected_X:
2748   06A9                                    .LINE     241
2749   0000                                    .BRANCH   19
2750   06A9       9508                         RET
2751   06AA                                    .ENDFUNC  241
2752   06AA            
2753   06AA            
2754   06AA                                    .FILE     NP_parser.pas
2755   06AA                                    .FUNC     ParseGetParam, 00004h, 00020h
2756   06AA            NoisePlayer.ParseGetParam:
2757   06AA                                    .RETURNS   0
2758   06AA       9722                         SBIW      _FRAMEPTR, 2
2759   06AB                                    .BLOCK    9
2760   06AB                                    .LINE     10
2761   06AB   91000154                         LDS       _ACCB, NoisePlayer.SubCh
2762   06AD   91100155                         LDS       _ACCA, NoisePlayer.SubCh+1
2763   06AF       01D8                         MOVW      _ACCBLO, _ACCB
2764   06B0       E02A                         LDI       _ACCALO, 0000Ah AND 0FFh
2765   06B1       E030                         LDI       _ACCAHI, 0000Ah SHRB 8
2766   06B2       9468                         SET
2767   06B3       F845                         BLD       Flags, _SIGN
2768   06B4   940E1760                         CALL      SYSTEM.DIV16_R
2769   06B6       018F                         MOVW      _ACCB, _ACCCLO
2770   06B7       7850                         ANDI      _ACCDHI, 80h
2771   06B8       F021                         BREQ      NoisePlayer._L0123
2772   06B9       9501                         NEG       _ACCB
2773   06BA       F409                         BRNE      NoisePlayer._L0124
2774   06BB       951A                         DEC       _ACCA
2775   06BC            NoisePlayer._L0124:
2776   06BC       9510                         COM       _ACCA
2777   06BD            NoisePlayer._L0123:
2778   06BD       2F10                         MOV       _ACCA, _ACCB
2779   06BE       8318                         STD       Y+000h, _ACCA
2780   06BF                                    .LINE     11
2781   06BF   91000154                         LDS       _ACCB, NoisePlayer.SubCh
2782   06C1   91100155                         LDS       _ACCA, NoisePlayer.SubCh+1
2783   06C3                                    .LINE     12
2784   06C3       9468                         SET
2785   06C4       F842                         BLD       Flags, _NEGATIVE
2786   06C5       E0A0                         LDI       _ACCBLO, 0 AND 0FFh
2787   06C6       E0B0                         LDI       _ACCBHI, 0 SHRB 8
2788   06C7       EF5F                         SER       _ACCDHI
2789   06C8   940E179F                         CALL      SYSTEM.High16i
2790   06CA       2355                         TST       _ACCDHI
2791   06D3                                    .BRANCH   6,NoisePlayer._L0128
2792   06CB       F43A                         BRPL      NoisePlayer._L0128
2793   06CC       E0A7                         LDI       _ACCBLO, 7 AND 0FFh
2794   06CD       E0B0                         LDI       _ACCBHI, 7 SHRB 8
2795   06CE       2755                         CLR       _ACCDHI
2796   06CF   940E179F                         CALL      SYSTEM.High16i
2797   06D1       2355                         TST       _ACCDHI
2798   06D4                                    .BRANCH   6,NoisePlayer._L0129
2799   06D2       F40A                         BRPL      NoisePlayer._L0129
2800   06D3            NoisePlayer._L0128:
2801   06F3                                    .BRANCH   20,NoisePlayer._L0127
2802   06D3       C01F                         RJMP      NoisePlayer._L0127
2803   06D4            NoisePlayer._L0129:
2804   06D4            NoisePlayer._L0126:
2805   06D4                                    .BLOCK    13
2806   06D4                                    .LINE     13
2807   06D4       ECEC                         LDI       _ACCCLO, NoisePlayer.WaveStartArray AND 0FFh
2808   06D5       E0F1                         LDI       _ACCCHI, NoisePlayer.WaveStartArray SHRB 8
2809   06D6       93EF                         PUSH      _ACCCLO
2810   06D7       93FF                         PUSH      _ACCCHI
2811   06D8       8118                         LDD       _ACCA, Y+000h
2812   06D9       2F01                         MOV       _ACCB, _ACCA
2813   06DA       2711                         CLR       _ACCA
2814   06DB       0F00                         LSL       _ACCB
2815   06DC       1F11                         ROL       _ACCA
2816   06DD       0F00                         LSL       _ACCB
2817   06DE       1F11                         ROL       _ACCA
2818   06DF       91FF                         POP       _ACCCHI
2819   06E0       91EF                         POP       _ACCCLO
2820   06E1       0FE0                         ADD       _ACCCLO, _ACCB
2821   06E2       1FF1                         ADC       _ACCCHI, _ACCA
2822   06E3       9101                         LD        _ACCB, Z+
2823   06E4       9111                         LD        _ACCA, Z+
2824   06E5       9121                         LD        _ACCALO, Z+
2825   06E6       9131                         LD        _ACCAHI, Z+
2826   06E7   9300015C                         STS       NOISEPLAYER.PARAMLONG, _ACCB
2827   06E9   9310015D                         STS       NOISEPLAYER.PARAMLONG+1, _ACCA
2828   06EB   9320015E                         STS       NOISEPLAYER.PARAMLONG+2, _ACCALO
2829   06ED   9330015F                         STS       NOISEPLAYER.PARAMLONG+3, _ACCAHI
2830   06EF                                    .LINE     14
2831   02F8                                    .BRANCH   17,NoisePlayer.WRITEPARAMLONGSERHEX
2832   06EF   940E02F8                         CALL      NoisePlayer.WRITEPARAMLONGSERHEX
2833   06F1            
2834   06F1                                    .ENDBLOCK 15
2835   084E                                    .BRANCH   20,NoisePlayer._L0125
2836   06F1   940C084E                         JMP       NoisePlayer._L0125
2837   06F3            NoisePlayer._L0127:
2838   06F3                                    .LINE     16
2839   06F3       9468                         SET
2840   06F4       F842                         BLD       Flags, _NEGATIVE
2841   06F5       E0AA                         LDI       _ACCBLO, 10 AND 0FFh
2842   06F6       E0B0                         LDI       _ACCBHI, 10 SHRB 8
2843   06F7       EF5F                         SER       _ACCDHI
2844   06F8   940E179F                         CALL      SYSTEM.High16i
2845   06FA       2355                         TST       _ACCDHI
2846   0703                                    .BRANCH   6,NoisePlayer._L0132
2847   06FB       F43A                         BRPL      NoisePlayer._L0132
2848   06FC       E1A1                         LDI       _ACCBLO, 17 AND 0FFh
2849   06FD       E0B0                         LDI       _ACCBHI, 17 SHRB 8
2850   06FE       2755                         CLR       _ACCDHI
2851   06FF   940E179F                         CALL      SYSTEM.High16i
2852   0701       2355                         TST       _ACCDHI
2853   0704                                    .BRANCH   6,NoisePlayer._L0133
2854   0702       F40A                         BRPL      NoisePlayer._L0133
2855   0703            NoisePlayer._L0132:
2856   0723                                    .BRANCH   20,NoisePlayer._L0131
2857   0703       C01F                         RJMP      NoisePlayer._L0131
2858   0704            NoisePlayer._L0133:
2859   0704            NoisePlayer._L0130:
2860   0704                                    .BLOCK    17
2861   0704                                    .LINE     17
2862   0704       EEEC                         LDI       _ACCCLO, NoisePlayer.WaveLoopArray AND 0FFh
2863   0705       E0F1                         LDI       _ACCCHI, NoisePlayer.WaveLoopArray SHRB 8
2864   0706       93EF                         PUSH      _ACCCLO
2865   0707       93FF                         PUSH      _ACCCHI
2866   0708       8118                         LDD       _ACCA, Y+000h
2867   0709       2F01                         MOV       _ACCB, _ACCA
2868   070A       2711                         CLR       _ACCA
2869   070B       0F00                         LSL       _ACCB
2870   070C       1F11                         ROL       _ACCA
2871   070D       0F00                         LSL       _ACCB
2872   070E       1F11                         ROL       _ACCA
2873   070F       91FF                         POP       _ACCCHI
2874   0710       91EF                         POP       _ACCCLO
2875   0711       0FE0                         ADD       _ACCCLO, _ACCB
2876   0712       1FF1                         ADC       _ACCCHI, _ACCA
2877   0713       9101                         LD        _ACCB, Z+
2878   0714       9111                         LD        _ACCA, Z+
2879   0715       9121                         LD        _ACCALO, Z+
2880   0716       9131                         LD        _ACCAHI, Z+
2881   0717   9300015C                         STS       NOISEPLAYER.PARAMLONG, _ACCB
2882   0719   9310015D                         STS       NOISEPLAYER.PARAMLONG+1, _ACCA
2883   071B   9320015E                         STS       NOISEPLAYER.PARAMLONG+2, _ACCALO
2884   071D   9330015F                         STS       NOISEPLAYER.PARAMLONG+3, _ACCAHI
2885   071F                                    .LINE     18
2886   02F8                                    .BRANCH   17,NoisePlayer.WRITEPARAMLONGSERHEX
2887   071F   940E02F8                         CALL      NoisePlayer.WRITEPARAMLONGSERHEX
2888   0721            
2889   0721                                    .ENDBLOCK 19
2890   084E                                    .BRANCH   20,NoisePlayer._L0125
2891   0721   940C084E                         JMP       NoisePlayer._L0125
2892   0723            NoisePlayer._L0131:
2893   0723                                    .LINE     20
2894   0723       9468                         SET
2895   0724       F842                         BLD       Flags, _NEGATIVE
2896   0725       E1A4                         LDI       _ACCBLO, 20 AND 0FFh
2897   0726       E0B0                         LDI       _ACCBHI, 20 SHRB 8
2898   0727       EF5F                         SER       _ACCDHI
2899   0728   940E179F                         CALL      SYSTEM.High16i
2900   072A       2355                         TST       _ACCDHI
2901   0733                                    .BRANCH   6,NoisePlayer._L0136
2902   072B       F43A                         BRPL      NoisePlayer._L0136
2903   072C       E1AB                         LDI       _ACCBLO, 27 AND 0FFh
2904   072D       E0B0                         LDI       _ACCBHI, 27 SHRB 8
2905   072E       2755                         CLR       _ACCDHI
2906   072F   940E179F                         CALL      SYSTEM.High16i
2907   0731       2355                         TST       _ACCDHI
2908   0734                                    .BRANCH   6,NoisePlayer._L0137
2909   0732       F40A                         BRPL      NoisePlayer._L0137
2910   0733            NoisePlayer._L0136:
2911   0753                                    .BRANCH   20,NoisePlayer._L0135
2912   0733       C01F                         RJMP      NoisePlayer._L0135
2913   0734            NoisePlayer._L0137:
2914   0734            NoisePlayer._L0134:
2915   0734                                    .BLOCK    21
2916   0734                                    .LINE     21
2917   0734       E0EC                         LDI       _ACCCLO, NoisePlayer.WaveEndArray AND 0FFh
2918   0735       E0F2                         LDI       _ACCCHI, NoisePlayer.WaveEndArray SHRB 8
2919   0736       93EF                         PUSH      _ACCCLO
2920   0737       93FF                         PUSH      _ACCCHI
2921   0738       8118                         LDD       _ACCA, Y+000h
2922   0739       2F01                         MOV       _ACCB, _ACCA
2923   073A       2711                         CLR       _ACCA
2924   073B       0F00                         LSL       _ACCB
2925   073C       1F11                         ROL       _ACCA
2926   073D       0F00                         LSL       _ACCB
2927   073E       1F11                         ROL       _ACCA
2928   073F       91FF                         POP       _ACCCHI
2929   0740       91EF                         POP       _ACCCLO
2930   0741       0FE0                         ADD       _ACCCLO, _ACCB
2931   0742       1FF1                         ADC       _ACCCHI, _ACCA
2932   0743       9101                         LD        _ACCB, Z+
2933   0744       9111                         LD        _ACCA, Z+
2934   0745       9121                         LD        _ACCALO, Z+
2935   0746       9131                         LD        _ACCAHI, Z+
2936   0747   9300015C                         STS       NOISEPLAYER.PARAMLONG, _ACCB
2937   0749   9310015D                         STS       NOISEPLAYER.PARAMLONG+1, _ACCA
2938   074B   9320015E                         STS       NOISEPLAYER.PARAMLONG+2, _ACCALO
2939   074D   9330015F                         STS       NOISEPLAYER.PARAMLONG+3, _ACCAHI
2940   074F                                    .LINE     22
2941   02F8                                    .BRANCH   17,NoisePlayer.WRITEPARAMLONGSERHEX
2942   074F   940E02F8                         CALL      NoisePlayer.WRITEPARAMLONGSERHEX
2943   0751            
2944   0751                                    .ENDBLOCK 23
2945   084E                                    .BRANCH   20,NoisePlayer._L0125
2946   0751   940C084E                         JMP       NoisePlayer._L0125
2947   0753            NoisePlayer._L0135:
2948   0753                                    .LINE     24
2949   0753       3010                         CPI       _ACCA, 30 SHRB 8
2950   0757                                    .BRANCH   3,NoisePlayer._L0140
2951   0754       F011                         BREQ      NoisePlayer._L0140
2952   076F                                    .BRANCH   20,NoisePlayer._L0139
2953   0755   940C076F                         JMP       NoisePlayer._L0139
2954   0757            NoisePlayer._L0140:
2955   0757       310E                         CPI       _ACCB, 30 AND 0FFh
2956   075B                                    .BRANCH   3,NoisePlayer._L0141
2957   0758       F011                         BREQ      NoisePlayer._L0141
2958   076F                                    .BRANCH   20,NoisePlayer._L0139
2959   0759   940C076F                         JMP       NoisePlayer._L0139
2960   075B            NoisePlayer._L0141:
2961   075B            NoisePlayer._L0138:
2962   075B                                    .BLOCK    25
2963   075B                                    .LINE     25
2964   075B   91000187                         LDS       _ACCB, NoisePlayer.DF_long
2965   075D   91100188                         LDS       _ACCA, NoisePlayer.DF_long+1
2966   075F   91200189                         LDS       _ACCALO, NoisePlayer.DF_long+2
2967   0761   9130018A                         LDS       _ACCAHI, NoisePlayer.DF_long+3
2968   0763   9300015C                         STS       NOISEPLAYER.PARAMLONG, _ACCB
2969   0765   9310015D                         STS       NOISEPLAYER.PARAMLONG+1, _ACCA
2970   0767   9320015E                         STS       NOISEPLAYER.PARAMLONG+2, _ACCALO
2971   0769   9330015F                         STS       NOISEPLAYER.PARAMLONG+3, _ACCAHI
2972   076B                                    .LINE     26
2973   02F8                                    .BRANCH   17,NoisePlayer.WRITEPARAMLONGSERHEX
2974   076B   940E02F8                         CALL      NoisePlayer.WRITEPARAMLONGSERHEX
2975   076D            
2976   076D                                    .ENDBLOCK 27
2977   084E                                    .BRANCH   20,NoisePlayer._L0125
2978   076D   940C084E                         JMP       NoisePlayer._L0125
2979   076F            NoisePlayer._L0139:
2980   076F                                    .LINE     28
2981   076F       3010                         CPI       _ACCA, 31 SHRB 8
2982   0773                                    .BRANCH   3,NoisePlayer._L0144
2983   0770       F011                         BREQ      NoisePlayer._L0144
2984   078B                                    .BRANCH   20,NoisePlayer._L0143
2985   0771   940C078B                         JMP       NoisePlayer._L0143
2986   0773            NoisePlayer._L0144:
2987   0773       310F                         CPI       _ACCB, 31 AND 0FFh
2988   0777                                    .BRANCH   3,NoisePlayer._L0145
2989   0774       F011                         BREQ      NoisePlayer._L0145
2990   078B                                    .BRANCH   20,NoisePlayer._L0143
2991   0775   940C078B                         JMP       NoisePlayer._L0143
2992   0777            NoisePlayer._L0145:
2993   0777            NoisePlayer._L0142:
2994   0777                                    .BLOCK    29
2995   0777                                    .LINE     29
2996   0777   910001C8                         LDS       _ACCB, NoisePlayer.WaveLoop
2997   0779   911001C9                         LDS       _ACCA, NoisePlayer.WaveLoop+1
2998   077B   912001CA                         LDS       _ACCALO, NoisePlayer.WaveLoop+2
2999   077D   913001CB                         LDS       _ACCAHI, NoisePlayer.WaveLoop+3
3000   077F   9300015C                         STS       NOISEPLAYER.PARAMLONG, _ACCB
3001   0781   9310015D                         STS       NOISEPLAYER.PARAMLONG+1, _ACCA
3002   0783   9320015E                         STS       NOISEPLAYER.PARAMLONG+2, _ACCALO
3003   0785   9330015F                         STS       NOISEPLAYER.PARAMLONG+3, _ACCAHI
3004   0787                                    .LINE     30
3005   02F8                                    .BRANCH   17,NoisePlayer.WRITEPARAMLONGSERHEX
3006   0787   940E02F8                         CALL      NoisePlayer.WRITEPARAMLONGSERHEX
3007   0789            
3008   0789                                    .ENDBLOCK 31
3009   084E                                    .BRANCH   20,NoisePlayer._L0125
3010   0789   940C084E                         JMP       NoisePlayer._L0125
3011   078B            NoisePlayer._L0143:
3012   078B                                    .LINE     32
3013   078B       3010                         CPI       _ACCA, 32 SHRB 8
3014   078F                                    .BRANCH   3,NoisePlayer._L0148
3015   078C       F011                         BREQ      NoisePlayer._L0148
3016   07A7                                    .BRANCH   20,NoisePlayer._L0147
3017   078D   940C07A7                         JMP       NoisePlayer._L0147
3018   078F            NoisePlayer._L0148:
3019   078F       3200                         CPI       _ACCB, 32 AND 0FFh
3020   0793                                    .BRANCH   3,NoisePlayer._L0149
3021   0790       F011                         BREQ      NoisePlayer._L0149
3022   07A7                                    .BRANCH   20,NoisePlayer._L0147
3023   0791   940C07A7                         JMP       NoisePlayer._L0147
3024   0793            NoisePlayer._L0149:
3025   0793            NoisePlayer._L0146:
3026   0793                                    .BLOCK    33
3027   0793                                    .LINE     33
3028   0793   910001C4                         LDS       _ACCB, NoisePlayer.WaveEnd
3029   0795   911001C5                         LDS       _ACCA, NoisePlayer.WaveEnd+1
3030   0797   912001C6                         LDS       _ACCALO, NoisePlayer.WaveEnd+2
3031   0799   913001C7                         LDS       _ACCAHI, NoisePlayer.WaveEnd+3
3032   079B   9300015C                         STS       NOISEPLAYER.PARAMLONG, _ACCB
3033   079D   9310015D                         STS       NOISEPLAYER.PARAMLONG+1, _ACCA
3034   079F   9320015E                         STS       NOISEPLAYER.PARAMLONG+2, _ACCALO
3035   07A1   9330015F                         STS       NOISEPLAYER.PARAMLONG+3, _ACCAHI
3036   07A3                                    .LINE     34
3037   02F8                                    .BRANCH   17,NoisePlayer.WRITEPARAMLONGSERHEX
3038   07A3   940E02F8                         CALL      NoisePlayer.WRITEPARAMLONGSERHEX
3039   07A5            
3040   07A5                                    .ENDBLOCK 35
3041   084E                                    .BRANCH   20,NoisePlayer._L0125
3042   07A5   940C084E                         JMP       NoisePlayer._L0125
3043   07A7            NoisePlayer._L0147:
3044   07A7                                    .LINE     36
3045   07A7       3010                         CPI       _ACCA, 33 SHRB 8
3046   07AB                                    .BRANCH   3,NoisePlayer._L0152
3047   07A8       F011                         BREQ      NoisePlayer._L0152
3048   07B7                                    .BRANCH   20,NoisePlayer._L0151
3049   07A9   940C07B7                         JMP       NoisePlayer._L0151
3050   07AB            NoisePlayer._L0152:
3051   07AB       3201                         CPI       _ACCB, 33 AND 0FFh
3052   07AF                                    .BRANCH   3,NoisePlayer._L0153
3053   07AC       F011                         BREQ      NoisePlayer._L0153
3054   07B7                                    .BRANCH   20,NoisePlayer._L0151
3055   07AD   940C07B7                         JMP       NoisePlayer._L0151
3056   07AF            NoisePlayer._L0153:
3057   07AF            NoisePlayer._L0150:
3058   07AF                                    .BLOCK    37
3059   07AF                                    .LINE     37
3060   07AF   9110014A                         LDS       _ACCA, NoisePlayer.wavesel
3061   07B1   93100162                         STS       NOISEPLAYER.PARAMBYTE, _ACCA
3062   07B3                                    .LINE     38
3063   02ED                                    .BRANCH   17,NoisePlayer.WRITEPARAMBYTESER
3064   07B3   940E02ED                         CALL      NoisePlayer.WRITEPARAMBYTESER
3065   07B5            
3066   07B5                                    .ENDBLOCK 39
3067   084E                                    .BRANCH   20,NoisePlayer._L0125
3068   07B5   940C084E                         JMP       NoisePlayer._L0125
3069   07B7            NoisePlayer._L0151:
3070   07B7                                    .LINE     40
3071   07B7       3010                         CPI       _ACCA, 34 SHRB 8
3072   07BB                                    .BRANCH   3,NoisePlayer._L0156
3073   07B8       F011                         BREQ      NoisePlayer._L0156
3074   07C6                                    .BRANCH   20,NoisePlayer._L0155
3075   07B9   940C07C6                         JMP       NoisePlayer._L0155
3076   07BB            NoisePlayer._L0156:
3077   07BB       3202                         CPI       _ACCB, 34 AND 0FFh
3078   07BF                                    .BRANCH   3,NoisePlayer._L0157
3079   07BC       F011                         BREQ      NoisePlayer._L0157
3080   07C6                                    .BRANCH   20,NoisePlayer._L0155
3081   07BD   940C07C6                         JMP       NoisePlayer._L0155
3082   07BF            NoisePlayer._L0157:
3083   07BF            NoisePlayer._L0154:
3084   07BF                                    .BLOCK    41
3085   07BF                                    .LINE     41
3086   07BF       B116                         IN        _ACCA, PinC
3087   07C0   93100162                         STS       NOISEPLAYER.PARAMBYTE, _ACCA
3088   07C2                                    .LINE     42
3089   02ED                                    .BRANCH   17,NoisePlayer.WRITEPARAMBYTESER
3090   07C2   940E02ED                         CALL      NoisePlayer.WRITEPARAMBYTESER
3091   07C4            
3092   07C4                                    .ENDBLOCK 43
3093   084E                                    .BRANCH   20,NoisePlayer._L0125
3094   07C4   940C084E                         JMP       NoisePlayer._L0125
3095   07C6            NoisePlayer._L0155:
3096   07C6                                    .LINE     44
3097   07C6       3010                         CPI       _ACCA, 251 SHRB 8
3098   07CA                                    .BRANCH   3,NoisePlayer._L0160
3099   07C7       F011                         BREQ      NoisePlayer._L0160
3100   07DA                                    .BRANCH   20,NoisePlayer._L0159
3101   07C8   940C07DA                         JMP       NoisePlayer._L0159
3102   07CA            NoisePlayer._L0160:
3103   07CA       3F0B                         CPI       _ACCB, 251 AND 0FFh
3104   07CE                                    .BRANCH   3,NoisePlayer._L0161
3105   07CB       F011                         BREQ      NoisePlayer._L0161
3106   07DA                                    .BRANCH   20,NoisePlayer._L0159
3107   07CC   940C07DA                         JMP       NoisePlayer._L0159
3108   07CE            NoisePlayer._L0161:
3109   07CE            NoisePlayer._L0158:
3110   07CE                                    .BLOCK    45
3111   07CE                                    .LINE     45
3112   07CE   910001B9                         LDS       _ACCB, NoisePlayer.Errcount
3113   07D0   911001BA                         LDS       _ACCA, NoisePlayer.Errcount+1
3114   07D2   93000159                         STS       NOISEPLAYER.PARAMINT, _ACCB
3115   07D4   9310015A                         STS       NOISEPLAYER.PARAMINT+1, _ACCA
3116   07D6                                    .LINE     46
3117   02D7                                    .BRANCH   17,NoisePlayer.WRITEPARAMINTSER
3118   07D6   940E02D7                         CALL      NoisePlayer.WRITEPARAMINTSER
3119   07D8            
3120   07D8                                    .ENDBLOCK 47
3121   084E                                    .BRANCH   20,NoisePlayer._L0125
3122   07D8   940C084E                         JMP       NoisePlayer._L0125
3123   07DA            NoisePlayer._L0159:
3124   07DA                                    .LINE     48
3125   07DA       3010                         CPI       _ACCA, 253 SHRB 8
3126   07DE                                    .BRANCH   3,NoisePlayer._L0164
3127   07DB       F011                         BREQ      NoisePlayer._L0164
3128   07F6                                    .BRANCH   20,NoisePlayer._L0163
3129   07DC   940C07F6                         JMP       NoisePlayer._L0163
3130   07DE            NoisePlayer._L0164:
3131   07DE       3F0D                         CPI       _ACCB, 253 AND 0FFh
3132   07E2                                    .BRANCH   3,NoisePlayer._L0165
3133   07DF       F011                         BREQ      NoisePlayer._L0165
3134   07F6                                    .BRANCH   20,NoisePlayer._L0163
3135   07E0   940C07F6                         JMP       NoisePlayer._L0163
3136   07E2            NoisePlayer._L0165:
3137   07E2            NoisePlayer._L0162:
3138   07E2                                    .BLOCK    49
3139   07E2                                    .LINE     49
3140   07E2       93CF                         PUSH      _FRAMEPTR
3141   07E3       93DF                         PUSH      _FPTRHI
3142   07E4       E018                         LDI       _ACCA, 1 SHLB _DEVICE
3143   07E5       2A41                         OR        Flags, _ACCA
3144   07E6       E50A                         LDI       _ACCB, SYSTEM.serout SHRB 1
3145   07E7       E112                         LDI       _ACCA, SYSTEM.serout SHRB 9
3146   07E8       931A                         ST        -Y, _ACCA
3147   07E9       930A                         ST        -Y, _ACCB
3148   07EA                                    .FRAME  2
3149   07EA       E6E5                         LDI       _ACCCLO, NoisePlayer.SerInpStr AND 0FFh
3150   07EB       E0F1                         LDI       _ACCCHI, NoisePlayer.SerInpStr SHRB 8
3151   07EC   940E1442                         CALL      SYSTEM.StrVar2Str
3152   07EE       91DF                         POP       _FPTRHI
3153   07EF       91CF                         POP       _FRAMEPTR
3154   07F0                                    .FRAME  0
3155   07F0                                    .LINE     50
3156   01DE                                    .BRANCH   17,NoisePlayer.SERCRLF
3157   07F0   940E01DE                         CALL      NoisePlayer.SERCRLF
3158   07F2            
3159   07F2                                    .LINE     51
3160   084E                                    .BRANCH   20,NoisePlayer.ParseGetParam_X
3161   07F2   940C084E                         JMP       NoisePlayer.ParseGetParam_X
3162   07F4                                    .ENDBLOCK 52
3163   084E                                    .BRANCH   20,NoisePlayer._L0125
3164   07F4   940C084E                         JMP       NoisePlayer._L0125
3165   07F6            NoisePlayer._L0163:
3166   07F6                                    .LINE     53
3167   07F6       3010                         CPI       _ACCA, 254 SHRB 8
3168   07FA                                    .BRANCH   3,NoisePlayer._L0168
3169   07F7       F011                         BREQ      NoisePlayer._L0168
3170   0812                                    .BRANCH   20,NoisePlayer._L0167
3171   07F8   940C0812                         JMP       NoisePlayer._L0167
3172   07FA            NoisePlayer._L0168:
3173   07FA       3F0E                         CPI       _ACCB, 254 AND 0FFh
3174   07FE                                    .BRANCH   3,NoisePlayer._L0169
3175   07FB       F011                         BREQ      NoisePlayer._L0169
3176   0812                                    .BRANCH   20,NoisePlayer._L0167
3177   07FC   940C0812                         JMP       NoisePlayer._L0167
3178   07FE            NoisePlayer._L0169:
3179   07FE            NoisePlayer._L0166:
3180   07FE                                    .BLOCK    54
3181   07FE                                    .LINE     54
3182   01E5                                    .BRANCH   17,NoisePlayer.WRITECHPREFIX
3183   07FE   940E01E5                         CALL      NoisePlayer.WRITECHPREFIX
3184   0800            
3185   0800                                    .LINE     55
3186   0800       93CF                         PUSH      _FRAMEPTR
3187   0801       93DF                         PUSH      _FPTRHI
3188   0802       E018                         LDI       _ACCA, 1 SHLB _DEVICE
3189   0803       2A41                         OR        Flags, _ACCA
3190   0804       E50A                         LDI       _ACCB, SYSTEM.serout SHRB 1
3191   0805       E112                         LDI       _ACCA, SYSTEM.serout SHRB 9
3192   0806       931A                         ST        -Y, _ACCA
3193   0807       930A                         ST        -Y, _ACCB
3194   0808                                    .FRAME  2
3195   0808       E5EC                         LDI       _ACCCLO, NoisePlayer.Vers1Str AND 0FFh
3196   0809       E2FF                         LDI       _ACCCHI, NoisePlayer.Vers1Str SHRB 8
3197   080A   940E1439                         CALL      SYSTEM.StrConst2Str
3198   080C            NoisePlayer._L0170:
3199   080C       91DF                         POP       _FPTRHI
3200   080D       91CF                         POP       _FRAMEPTR
3201   080E                                    .FRAME  0
3202   080E                                    .LINE     56
3203   01DE                                    .BRANCH   17,NoisePlayer.SERCRLF
3204   080E   940E01DE                         CALL      NoisePlayer.SERCRLF
3205   0810            
3206   0810                                    .ENDBLOCK 57
3207   084E                                    .BRANCH   20,NoisePlayer._L0125
3208   0810   940C084E                         JMP       NoisePlayer._L0125
3209   0812            NoisePlayer._L0167:
3210   0812                                    .LINE     58
3211   0812       3010                         CPI       _ACCA, 255 SHRB 8
3212   0816                                    .BRANCH   3,NoisePlayer._L0173
3213   0813       F011                         BREQ      NoisePlayer._L0173
3214   0824                                    .BRANCH   20,NoisePlayer._L0172
3215   0814   940C0824                         JMP       NoisePlayer._L0172
3216   0816            NoisePlayer._L0173:
3217   0816       3F0F                         CPI       _ACCB, 255 AND 0FFh
3218   081A                                    .BRANCH   3,NoisePlayer._L0174
3219   0817       F011                         BREQ      NoisePlayer._L0174
3220   0824                                    .BRANCH   20,NoisePlayer._L0172
3221   0818   940C0824                         JMP       NoisePlayer._L0172
3222   081A            NoisePlayer._L0174:
3223   081A            NoisePlayer._L0171:
3224   081A                                    .BLOCK    59
3225   081A                                    .LINE     59
3226   081A       93CF                         PUSH      _FRAMEPTR
3227   081B       93DF                         PUSH      _FPTRHI
3228   081C       E010                         LDI       _ACCA, 000h
3229   081D       931A                         ST        -Y, _ACCA
3230   081E                                    .FRAME  1
3231   081E                                    .FRAME  0
3232   022B                                    .BRANCH   17,NoisePlayer.SERPROMPT
3233   081E   940E022B                         CALL      NoisePlayer.SERPROMPT
3234   0820       91DF                         POP       _FPTRHI
3235   0821       91CF                         POP       _FRAMEPTR
3236   0822            
3237   0822                                    .ENDBLOCK 60
3238   084E                                    .BRANCH   20,NoisePlayer._L0125
3239   0822   940C084E                         JMP       NoisePlayer._L0125
3240   0824            NoisePlayer._L0172:
3241   0824                                    .LINE     61
3242   0824       3216                         CPI       _ACCA, 9920 SHRB 8
3243   0828                                    .BRANCH   3,NoisePlayer._L0177
3244   0825       F011                         BREQ      NoisePlayer._L0177
3245   0834                                    .BRANCH   20,NoisePlayer._L0176
3246   0826   940C0834                         JMP       NoisePlayer._L0176
3247   0828            NoisePlayer._L0177:
3248   0828       3C00                         CPI       _ACCB, 9920 AND 0FFh
3249   082C                                    .BRANCH   3,NoisePlayer._L0178
3250   0829       F011                         BREQ      NoisePlayer._L0178
3251   0834                                    .BRANCH   20,NoisePlayer._L0176
3252   082A   940C0834                         JMP       NoisePlayer._L0176
3253   082C            NoisePlayer._L0178:
3254   082C            NoisePlayer._L0175:
3255   082C                                    .BLOCK    62
3256   082C                                    .LINE     62
3257   004F                                    .BRANCH   17,NoisePlayer.DF_STATUS
3258   082C   940E004F                         CALL       NoisePlayer.DF_STATUS
3259   082E            
3260   082E   93100162                         STS       NOISEPLAYER.PARAMBYTE, _ACCA
3261   0830                                    .LINE     63
3262   02ED                                    .BRANCH   17,NoisePlayer.WRITEPARAMBYTESER
3263   0830   940E02ED                         CALL      NoisePlayer.WRITEPARAMBYTESER
3264   0832            
3265   0832                                    .ENDBLOCK 64
3266   084E                                    .BRANCH   20,NoisePlayer._L0125
3267   0832   940C084E                         JMP       NoisePlayer._L0125
3268   0834            NoisePlayer._L0176:
3269   0834                                    .LINE     65
3270   0834       3217                         CPI       _ACCA, 9999 SHRB 8
3271   0838                                    .BRANCH   3,NoisePlayer._L0181
3272   0835       F011                         BREQ      NoisePlayer._L0181
3273   0846                                    .BRANCH   20,NoisePlayer._L0180
3274   0836   940C0846                         JMP       NoisePlayer._L0180
3275   0838            NoisePlayer._L0181:
3276   0838       300F                         CPI       _ACCB, 9999 AND 0FFh
3277   083C                                    .BRANCH   3,NoisePlayer._L0182
3278   0839       F011                         BREQ      NoisePlayer._L0182
3279   0846                                    .BRANCH   20,NoisePlayer._L0180
3280   083A   940C0846                         JMP       NoisePlayer._L0180
3281   083C            NoisePlayer._L0182:
3282   083C            NoisePlayer._L0179:
3283   083C                                    .BLOCK    66
3284   083C                                    .LINE     66
3285   083C       94F8                         CLI
3286   083D       E71F                         LDI       _ACCA, 0FEH ROLB IntFlag
3287   083E       2241                         AND       Flags, _ACCA
3288   083F       B704                         IN        _ACCB, mcusr
3289   0840       7F03                         ANDI      _ACCB, 0F3h
3290   0841       BF04                         OUT       mcusr, _ACCB
3291   0842   940C114A                         JMP       SYSTEM.Reset
3292   0844                                    .ENDBLOCK 67
3293   084E                                    .BRANCH   20,NoisePlayer._L0125
3294   0844   940C084E                         JMP       NoisePlayer._L0125
3295   0846            NoisePlayer._L0180:
3296   0846                                    .BLOCK    68
3297   0846                                    .LINE     69
3298   0846       93CF                         PUSH      _FRAMEPTR
3299   0847       93DF                         PUSH      _FPTRHI
3300   0848       E015                         LDI       _ACCA, 005h
3301   0849       931A                         ST        -Y, _ACCA
3302   084A                                    .FRAME  1
3303   084A                                    .FRAME  0
3304   022B                                    .BRANCH   17,NoisePlayer.SERPROMPT
3305   084A   940E022B                         CALL      NoisePlayer.SERPROMPT
3306   084C       91DF                         POP       _FPTRHI
3307   084D       91CF                         POP       _FRAMEPTR
3308   084E            
3309   084E                                    .ENDBLOCK 70
3310   084E            NoisePlayer._L0125:
3311   084E                                    .ENDBLOCK 71
3312   084E            NoisePlayer.ParseGetParam_X:
3313   084E                                    .LINE     71
3314   0000                                    .BRANCH   19
3315   084E       9508                         RET
3316   084F                                    .ENDFUNC  71
3317   084F            
3318   084F                                    .FUNC     ParseSetParam, 0004Ah, 00020h
3319   084F            NoisePlayer.ParseSetParam:
3320   084F                                    .RETURNS   0
3321   084F       9723                         SBIW      _FRAMEPTR, 3
3322   0850                                    .BLOCK    79
3323   0850                                    .LINE     80
3324   0850   91000154                         LDS       _ACCB, NoisePlayer.SubCh
3325   0852   91100155                         LDS       _ACCA, NoisePlayer.SubCh+1
3326   0854       01D8                         MOVW      _ACCBLO, _ACCB
3327   0855       E02A                         LDI       _ACCALO, 0000Ah AND 0FFh
3328   0856       E030                         LDI       _ACCAHI, 0000Ah SHRB 8
3329   0857       9468                         SET
3330   0858       F845                         BLD       Flags, _SIGN
3331   0859   940E1760                         CALL      SYSTEM.DIV16_R
3332   085B       018F                         MOVW      _ACCB, _ACCCLO
3333   085C       7850                         ANDI      _ACCDHI, 80h
3334   085D       F021                         BREQ      NoisePlayer._L0183
3335   085E       9501                         NEG       _ACCB
3336   085F       F409                         BRNE      NoisePlayer._L0184
3337   0860       951A                         DEC       _ACCA
3338   0861            NoisePlayer._L0184:
3339   0861       9510                         COM       _ACCA
3340   0862            NoisePlayer._L0183:
3341   0862       2F10                         MOV       _ACCA, _ACCB
3342   0863       8319                         STD       Y+001h, _ACCA
3343   0864                                    .LINE     81
3344   0864   91000154                         LDS       _ACCB, NoisePlayer.SubCh
3345   0866   91100155                         LDS       _ACCA, NoisePlayer.SubCh+1
3346   0868                                    .LINE     82
3347   0868       9468                         SET
3348   0869       F842                         BLD       Flags, _NEGATIVE
3349   086A       E0A0                         LDI       _ACCBLO, 0 AND 0FFh
3350   086B       E0B0                         LDI       _ACCBHI, 0 SHRB 8
3351   086C       EF5F                         SER       _ACCDHI
3352   086D   940E179F                         CALL      SYSTEM.High16i
3353   086F       2355                         TST       _ACCDHI
3354   0878                                    .BRANCH   6,NoisePlayer._L0188
3355   0870       F43A                         BRPL      NoisePlayer._L0188
3356   0871       E0A7                         LDI       _ACCBLO, 7 AND 0FFh
3357   0872       E0B0                         LDI       _ACCBHI, 7 SHRB 8
3358   0873       2755                         CLR       _ACCDHI
3359   0874   940E179F                         CALL      SYSTEM.High16i
3360   0876       2355                         TST       _ACCDHI
3361   0879                                    .BRANCH   6,NoisePlayer._L0189
3362   0877       F40A                         BRPL      NoisePlayer._L0189
3363   0878            NoisePlayer._L0188:
3364   08C8                                    .BRANCH   20,NoisePlayer._L0187
3365   0878       C04F                         RJMP      NoisePlayer._L0187
3366   0879            NoisePlayer._L0189:
3367   0879            NoisePlayer._L0186:
3368   0879                                    .BLOCK    83
3369   0879                                    .LINE     83
3370   0879       ECEC                         LDI       _ACCCLO, NoisePlayer.WaveStartArray AND 0FFh
3371   087A       E0F1                         LDI       _ACCCHI, NoisePlayer.WaveStartArray SHRB 8
3372   087B       93EF                         PUSH      _ACCCLO
3373   087C       93FF                         PUSH      _ACCCHI
3374   087D       8119                         LDD       _ACCA, Y+001h
3375   087E       2F01                         MOV       _ACCB, _ACCA
3376   087F       2711                         CLR       _ACCA
3377   0880       0F00                         LSL       _ACCB
3378   0881       1F11                         ROL       _ACCA
3379   0882       0F00                         LSL       _ACCB
3380   0883       1F11                         ROL       _ACCA
3381   0884       91FF                         POP       _ACCCHI
3382   0885       91EF                         POP       _ACCCLO
3383   0886       0FE0                         ADD       _ACCCLO, _ACCB
3384   0887       1FF1                         ADC       _ACCCHI, _ACCA
3385   0888       93EF                         PUSH      _ACCCLO
3386   0889       93FF                         PUSH      _ACCCHI
3387   088A   9100015C                         LDS       _ACCB, NoisePlayer.ParamLong
3388   088C   9110015D                         LDS       _ACCA, NoisePlayer.ParamLong+1
3389   088E   9120015E                         LDS       _ACCALO, NoisePlayer.ParamLong+2
3390   0890   9130015F                         LDS       _ACCAHI, NoisePlayer.ParamLong+3
3391   0892       91FF                         POP       _ACCCHI
3392   0893       91EF                         POP       _ACCCLO
3393   0894       9301                         ST        Z+, _ACCB
3394   0895       9311                         ST        Z+, _ACCA
3395   0896       9321                         ST        Z+, _ACCALO
3396   0897       9331                         ST        Z+, _ACCAHI
3397   0898                                    .LINE     84
3398   0898       E0E0                         LDI       _ACCCLO, NoisePlayer.EEWaveStartArray AND 0FFh
3399   0899       E0F0                         LDI       _ACCCHI, NoisePlayer.EEWaveStartArray SHRB 8
3400   089A       93EF                         PUSH      _ACCCLO
3401   089B       93FF                         PUSH      _ACCCHI
3402   089C       8119                         LDD       _ACCA, Y+001h
3403   089D       2F01                         MOV       _ACCB, _ACCA
3404   089E       2711                         CLR       _ACCA
3405   089F       0F00                         LSL       _ACCB
3406   08A0       1F11                         ROL       _ACCA
3407   08A1       0F00                         LSL       _ACCB
3408   08A2       1F11                         ROL       _ACCA
3409   08A3       91FF                         POP       _ACCCHI
3410   08A4       91EF                         POP       _ACCCLO
3411   08A5       0FE0                         ADD       _ACCCLO, _ACCB
3412   08A6       1FF1                         ADC       _ACCCHI, _ACCA
3413   08A7       93EF                         PUSH      _ACCCLO
3414   08A8       93FF                         PUSH      _ACCCHI
3415   08A9   9100015C                         LDS       _ACCB, NoisePlayer.ParamLong
3416   08AB   9110015D                         LDS       _ACCA, NoisePlayer.ParamLong+1
3417   08AD   9120015E                         LDS       _ACCALO, NoisePlayer.ParamLong+2
3418   08AF   9130015F                         LDS       _ACCAHI, NoisePlayer.ParamLong+3
3419   08B1       91FF                         POP       _ACCCHI
3420   08B2       91EF                         POP       _ACCCLO
3421   08B3       01D8                         MOVW      _ACCBLO, _ACCB
3422   08B4   940E12B3                         CALL      SYSTEM._WriteEEp32
3423   08B6                                    .LINE     85
3424   08B6   9100015C                         LDS       _ACCB, NoisePlayer.ParamLong
3425   08B8   9110015D                         LDS       _ACCA, NoisePlayer.ParamLong+1
3426   08BA   9120015E                         LDS       _ACCALO, NoisePlayer.ParamLong+2
3427   08BC   9130015F                         LDS       _ACCAHI, NoisePlayer.ParamLong+3
3428   08BE   93000187                         STS       NOISEPLAYER.DF_LONG, _ACCB
3429   08C0   93100188                         STS       NOISEPLAYER.DF_LONG+1, _ACCA
3430   08C2   93200189                         STS       NOISEPLAYER.DF_LONG+2, _ACCALO
3431   08C4   9330018A                         STS       NOISEPLAYER.DF_LONG+3, _ACCAHI
3432   08C6                                    .ENDBLOCK 86
3433   0AD2                                    .BRANCH   20,NoisePlayer._L0185
3434   08C6   940C0AD2                         JMP       NoisePlayer._L0185
3435   08C8            NoisePlayer._L0187:
3436   08C8                                    .LINE     87
3437   08C8       9468                         SET
3438   08C9       F842                         BLD       Flags, _NEGATIVE
3439   08CA       E0AA                         LDI       _ACCBLO, 10 AND 0FFh
3440   08CB       E0B0                         LDI       _ACCBHI, 10 SHRB 8
3441   08CC       EF5F                         SER       _ACCDHI
3442   08CD   940E179F                         CALL      SYSTEM.High16i
3443   08CF       2355                         TST       _ACCDHI
3444   08D8                                    .BRANCH   6,NoisePlayer._L0192
3445   08D0       F43A                         BRPL      NoisePlayer._L0192
3446   08D1       E1A1                         LDI       _ACCBLO, 17 AND 0FFh
3447   08D2       E0B0                         LDI       _ACCBHI, 17 SHRB 8
3448   08D3       2755                         CLR       _ACCDHI
3449   08D4   940E179F                         CALL      SYSTEM.High16i
3450   08D6       2355                         TST       _ACCDHI
3451   08D9                                    .BRANCH   6,NoisePlayer._L0193
3452   08D7       F40A                         BRPL      NoisePlayer._L0193
3453   08D8            NoisePlayer._L0192:
3454   0938                                    .BRANCH   20,NoisePlayer._L0191
3455   08D8       C05F                         RJMP      NoisePlayer._L0191
3456   08D9            NoisePlayer._L0193:
3457   08D9            NoisePlayer._L0190:
3458   08D9                                    .BLOCK    88
3459   08D9                                    .LINE     88
3460   08D9       EEEC                         LDI       _ACCCLO, NoisePlayer.WaveLoopArray AND 0FFh
3461   08DA       E0F1                         LDI       _ACCCHI, NoisePlayer.WaveLoopArray SHRB 8
3462   08DB       93EF                         PUSH      _ACCCLO
3463   08DC       93FF                         PUSH      _ACCCHI
3464   08DD       8119                         LDD       _ACCA, Y+001h
3465   08DE       2F01                         MOV       _ACCB, _ACCA
3466   08DF       2711                         CLR       _ACCA
3467   08E0       0F00                         LSL       _ACCB
3468   08E1       1F11                         ROL       _ACCA
3469   08E2       0F00                         LSL       _ACCB
3470   08E3       1F11                         ROL       _ACCA
3471   08E4       91FF                         POP       _ACCCHI
3472   08E5       91EF                         POP       _ACCCLO
3473   08E6       0FE0                         ADD       _ACCCLO, _ACCB
3474   08E7       1FF1                         ADC       _ACCCHI, _ACCA
3475   08E8       93EF                         PUSH      _ACCCLO
3476   08E9       93FF                         PUSH      _ACCCHI
3477   08EA   9100015C                         LDS       _ACCB, NoisePlayer.ParamLong
3478   08EC   9110015D                         LDS       _ACCA, NoisePlayer.ParamLong+1
3479   08EE   9120015E                         LDS       _ACCALO, NoisePlayer.ParamLong+2
3480   08F0   9130015F                         LDS       _ACCAHI, NoisePlayer.ParamLong+3
3481   08F2       91FF                         POP       _ACCCHI
3482   08F3       91EF                         POP       _ACCCLO
3483   08F4       9301                         ST        Z+, _ACCB
3484   08F5       9311                         ST        Z+, _ACCA
3485   08F6       9321                         ST        Z+, _ACCALO
3486   08F7       9331                         ST        Z+, _ACCAHI
3487   08F8                                    .LINE     89
3488   08F8       E2E0                         LDI       _ACCCLO, NoisePlayer.EEWaveLoopArray AND 0FFh
3489   08F9       E0F0                         LDI       _ACCCHI, NoisePlayer.EEWaveLoopArray SHRB 8
3490   08FA       93EF                         PUSH      _ACCCLO
3491   08FB       93FF                         PUSH      _ACCCHI
3492   08FC       8119                         LDD       _ACCA, Y+001h
3493   08FD       2F01                         MOV       _ACCB, _ACCA
3494   08FE       2711                         CLR       _ACCA
3495   08FF       0F00                         LSL       _ACCB
3496   0900       1F11                         ROL       _ACCA
3497   0901       0F00                         LSL       _ACCB
3498   0902       1F11                         ROL       _ACCA
3499   0903       91FF                         POP       _ACCCHI
3500   0904       91EF                         POP       _ACCCLO
3501   0905       0FE0                         ADD       _ACCCLO, _ACCB
3502   0906       1FF1                         ADC       _ACCCHI, _ACCA
3503   0907       93EF                         PUSH      _ACCCLO
3504   0908       93FF                         PUSH      _ACCCHI
3505   0909   9100015C                         LDS       _ACCB, NoisePlayer.ParamLong
3506   090B   9110015D                         LDS       _ACCA, NoisePlayer.ParamLong+1
3507   090D   9120015E                         LDS       _ACCALO, NoisePlayer.ParamLong+2
3508   090F   9130015F                         LDS       _ACCAHI, NoisePlayer.ParamLong+3
3509   0911       91FF                         POP       _ACCCHI
3510   0912       91EF                         POP       _ACCCLO
3511   0913       01D8                         MOVW      _ACCBLO, _ACCB
3512   0914   940E12B3                         CALL      SYSTEM._WriteEEp32
3513   0916                                    .LINE     90
3514   0916   9100015C                         LDS       _ACCB, NoisePlayer.ParamLong
3515   0918   9110015D                         LDS       _ACCA, NoisePlayer.ParamLong+1
3516   091A   9120015E                         LDS       _ACCALO, NoisePlayer.ParamLong+2
3517   091C   9130015F                         LDS       _ACCAHI, NoisePlayer.ParamLong+3
3518   091E   930001C8                         STS       NOISEPLAYER.WAVELOOP, _ACCB
3519   0920   931001C9                         STS       NOISEPLAYER.WAVELOOP+1, _ACCA
3520   0922   932001CA                         STS       NOISEPLAYER.WAVELOOP+2, _ACCALO
3521   0924   933001CB                         STS       NOISEPLAYER.WAVELOOP+3, _ACCAHI
3522   0926                                    .LINE     91
3523   0926   910001C8                         LDS       _ACCB, NoisePlayer.WaveLoop
3524   0928   911001C9                         LDS       _ACCA, NoisePlayer.WaveLoop+1
3525   092A   912001CA                         LDS       _ACCALO, NoisePlayer.WaveLoop+2
3526   092C   913001CB                         LDS       _ACCAHI, NoisePlayer.WaveLoop+3
3527   092E   93000187                         STS       NOISEPLAYER.DF_LONG, _ACCB
3528   0930   93100188                         STS       NOISEPLAYER.DF_LONG+1, _ACCA
3529   0932   93200189                         STS       NOISEPLAYER.DF_LONG+2, _ACCALO
3530   0934   9330018A                         STS       NOISEPLAYER.DF_LONG+3, _ACCAHI
3531   0936                                    .ENDBLOCK 92
3532   0AD2                                    .BRANCH   20,NoisePlayer._L0185
3533   0936   940C0AD2                         JMP       NoisePlayer._L0185
3534   0938            NoisePlayer._L0191:
3535   0938                                    .LINE     93
3536   0938       9468                         SET
3537   0939       F842                         BLD       Flags, _NEGATIVE
3538   093A       E1A4                         LDI       _ACCBLO, 20 AND 0FFh
3539   093B       E0B0                         LDI       _ACCBHI, 20 SHRB 8
3540   093C       EF5F                         SER       _ACCDHI
3541   093D   940E179F                         CALL      SYSTEM.High16i
3542   093F       2355                         TST       _ACCDHI
3543   0948                                    .BRANCH   6,NoisePlayer._L0196
3544   0940       F43A                         BRPL      NoisePlayer._L0196
3545   0941       E1AB                         LDI       _ACCBLO, 27 AND 0FFh
3546   0942       E0B0                         LDI       _ACCBHI, 27 SHRB 8
3547   0943       2755                         CLR       _ACCDHI
3548   0944   940E179F                         CALL      SYSTEM.High16i
3549   0946       2355                         TST       _ACCDHI
3550   0949                                    .BRANCH   6,NoisePlayer._L0197
3551   0947       F40A                         BRPL      NoisePlayer._L0197
3552   0948            NoisePlayer._L0196:
3553   09A8                                    .BRANCH   20,NoisePlayer._L0195
3554   0948       C05F                         RJMP      NoisePlayer._L0195
3555   0949            NoisePlayer._L0197:
3556   0949            NoisePlayer._L0194:
3557   0949                                    .BLOCK    94
3558   0949                                    .LINE     94
3559   0949       E0EC                         LDI       _ACCCLO, NoisePlayer.WaveEndArray AND 0FFh
3560   094A       E0F2                         LDI       _ACCCHI, NoisePlayer.WaveEndArray SHRB 8
3561   094B       93EF                         PUSH      _ACCCLO
3562   094C       93FF                         PUSH      _ACCCHI
3563   094D       8119                         LDD       _ACCA, Y+001h
3564   094E       2F01                         MOV       _ACCB, _ACCA
3565   094F       2711                         CLR       _ACCA
3566   0950       0F00                         LSL       _ACCB
3567   0951       1F11                         ROL       _ACCA
3568   0952       0F00                         LSL       _ACCB
3569   0953       1F11                         ROL       _ACCA
3570   0954       91FF                         POP       _ACCCHI
3571   0955       91EF                         POP       _ACCCLO
3572   0956       0FE0                         ADD       _ACCCLO, _ACCB
3573   0957       1FF1                         ADC       _ACCCHI, _ACCA
3574   0958       93EF                         PUSH      _ACCCLO
3575   0959       93FF                         PUSH      _ACCCHI
3576   095A   9100015C                         LDS       _ACCB, NoisePlayer.ParamLong
3577   095C   9110015D                         LDS       _ACCA, NoisePlayer.ParamLong+1
3578   095E   9120015E                         LDS       _ACCALO, NoisePlayer.ParamLong+2
3579   0960   9130015F                         LDS       _ACCAHI, NoisePlayer.ParamLong+3
3580   0962       91FF                         POP       _ACCCHI
3581   0963       91EF                         POP       _ACCCLO
3582   0964       9301                         ST        Z+, _ACCB
3583   0965       9311                         ST        Z+, _ACCA
3584   0966       9321                         ST        Z+, _ACCALO
3585   0967       9331                         ST        Z+, _ACCAHI
3586   0968                                    .LINE     95
3587   0968       E4E0                         LDI       _ACCCLO, NoisePlayer.EEWaveEndArray AND 0FFh
3588   0969       E0F0                         LDI       _ACCCHI, NoisePlayer.EEWaveEndArray SHRB 8
3589   096A       93EF                         PUSH      _ACCCLO
3590   096B       93FF                         PUSH      _ACCCHI
3591   096C       8119                         LDD       _ACCA, Y+001h
3592   096D       2F01                         MOV       _ACCB, _ACCA
3593   096E       2711                         CLR       _ACCA
3594   096F       0F00                         LSL       _ACCB
3595   0970       1F11                         ROL       _ACCA
3596   0971       0F00                         LSL       _ACCB
3597   0972       1F11                         ROL       _ACCA
3598   0973       91FF                         POP       _ACCCHI
3599   0974       91EF                         POP       _ACCCLO
3600   0975       0FE0                         ADD       _ACCCLO, _ACCB
3601   0976       1FF1                         ADC       _ACCCHI, _ACCA
3602   0977       93EF                         PUSH      _ACCCLO
3603   0978       93FF                         PUSH      _ACCCHI
3604   0979   9100015C                         LDS       _ACCB, NoisePlayer.ParamLong
3605   097B   9110015D                         LDS       _ACCA, NoisePlayer.ParamLong+1
3606   097D   9120015E                         LDS       _ACCALO, NoisePlayer.ParamLong+2
3607   097F   9130015F                         LDS       _ACCAHI, NoisePlayer.ParamLong+3
3608   0981       91FF                         POP       _ACCCHI
3609   0982       91EF                         POP       _ACCCLO
3610   0983       01D8                         MOVW      _ACCBLO, _ACCB
3611   0984   940E12B3                         CALL      SYSTEM._WriteEEp32
3612   0986                                    .LINE     96
3613   0986   9100015C                         LDS       _ACCB, NoisePlayer.ParamLong
3614   0988   9110015D                         LDS       _ACCA, NoisePlayer.ParamLong+1
3615   098A   9120015E                         LDS       _ACCALO, NoisePlayer.ParamLong+2
3616   098C   9130015F                         LDS       _ACCAHI, NoisePlayer.ParamLong+3
3617   098E   930001C4                         STS       NOISEPLAYER.WAVEEND, _ACCB
3618   0990   931001C5                         STS       NOISEPLAYER.WAVEEND+1, _ACCA
3619   0992   932001C6                         STS       NOISEPLAYER.WAVEEND+2, _ACCALO
3620   0994   933001C7                         STS       NOISEPLAYER.WAVEEND+3, _ACCAHI
3621   0996                                    .LINE     97
3622   0996   910001C4                         LDS       _ACCB, NoisePlayer.WaveEnd
3623   0998   911001C5                         LDS       _ACCA, NoisePlayer.WaveEnd+1
3624   099A   912001C6                         LDS       _ACCALO, NoisePlayer.WaveEnd+2
3625   099C   913001C7                         LDS       _ACCAHI, NoisePlayer.WaveEnd+3
3626   099E   93000187                         STS       NOISEPLAYER.DF_LONG, _ACCB
3627   09A0   93100188                         STS       NOISEPLAYER.DF_LONG+1, _ACCA
3628   09A2   93200189                         STS       NOISEPLAYER.DF_LONG+2, _ACCALO
3629   09A4   9330018A                         STS       NOISEPLAYER.DF_LONG+3, _ACCAHI
3630   09A6                                    .ENDBLOCK 98
3631   0AD2                                    .BRANCH   20,NoisePlayer._L0185
3632   09A6   940C0AD2                         JMP       NoisePlayer._L0185
3633   09A8            NoisePlayer._L0195:
3634   09A8                                    .LINE     99
3635   09A8       3216                         CPI       _ACCA, 9920 SHRB 8
3636   09AC                                    .BRANCH   3,NoisePlayer._L0200
3637   09A9       F011                         BREQ      NoisePlayer._L0200
3638   09C2                                    .BRANCH   20,NoisePlayer._L0199
3639   09AA   940C09C2                         JMP       NoisePlayer._L0199
3640   09AC            NoisePlayer._L0200:
3641   09AC       3C00                         CPI       _ACCB, 9920 AND 0FFh
3642   09B0                                    .BRANCH   3,NoisePlayer._L0201
3643   09AD       F011                         BREQ      NoisePlayer._L0201
3644   09C2                                    .BRANCH   20,NoisePlayer._L0199
3645   09AE   940C09C2                         JMP       NoisePlayer._L0199
3646   09B0            NoisePlayer._L0201:
3647   09B0            NoisePlayer._L0198:
3648   09B0                                    .BLOCK    100
3649   09B0                                    .LINE     100
3650   09B0   91100162                         LDS       _ACCA, NoisePlayer.ParamByte
3651   09B2       3010                         CPI       _ACCA, 000h
3652   09B3       E010                         LDI       _ACCA, 0h
3653   09B4       F409                         BRNE      NoisePlayer._L0202
3654   09B5       EF1F                         SER       _ACCA
3655   09B6            NoisePlayer._L0202:
3656   09B6       2311                         TST       _ACCA
3657   09BA                                    .BRANCH   4,NoisePlayer._L0205
3658   09B7       F411                         BRNE      NoisePlayer._L0205
3659   09BE                                    .BRANCH   20,NoisePlayer._L0203
3660   09B8   940C09BE                         JMP       NoisePlayer._L0203
3661   09BA            NoisePlayer._L0205:
3662   09BA                                    .BLOCK    100
3663   09BA                                    .LINE     101
3664   0073                                    .BRANCH   17,NoisePlayer.DF_UNPROTECT
3665   09BA   940E0073                         CALL      NoisePlayer.DF_UNPROTECT
3666   09BC            
3667   09BC                                    .ENDBLOCK 102
3668   09C0                                    .BRANCH   20,NoisePlayer._L0204
3669   09BC   940C09C0                         JMP       NoisePlayer._L0204
3670   09BE            NoisePlayer._L0203:
3671   09BE                                    .BLOCK    102
3672   09BE                                    .LINE     103
3673   0082                                    .BRANCH   17,NoisePlayer.DF_PROTECT
3674   09BE   940E0082                         CALL      NoisePlayer.DF_PROTECT
3675   09C0            
3676   09C0                                    .ENDBLOCK 104
3677   09C0            NoisePlayer._L0204:
3678   09C0                                    .ENDBLOCK 105
3679   0AD2                                    .BRANCH   20,NoisePlayer._L0185
3680   09C0   940C0AD2                         JMP       NoisePlayer._L0185
3681   09C2            NoisePlayer._L0199:
3682   09C2                                    .LINE     106
3683   09C2       3216                         CPI       _ACCA, 9930 SHRB 8
3684   09C6                                    .BRANCH   3,NoisePlayer._L0208
3685   09C3       F011                         BREQ      NoisePlayer._L0208
3686   09CC                                    .BRANCH   20,NoisePlayer._L0207
3687   09C4   940C09CC                         JMP       NoisePlayer._L0207
3688   09C6            NoisePlayer._L0208:
3689   09C6       3C0A                         CPI       _ACCB, 9930 AND 0FFh
3690   09CA                                    .BRANCH   3,NoisePlayer._L0209
3691   09C7       F011                         BREQ      NoisePlayer._L0209
3692   09CC                                    .BRANCH   20,NoisePlayer._L0207
3693   09C8   940C09CC                         JMP       NoisePlayer._L0207
3694   09CA            NoisePlayer._L0209:
3695   09D4                                    .BRANCH   20,NoisePlayer._L0206
3696   09CA   940C09D4                         JMP       NoisePlayer._L0206
3697   09CC            NoisePlayer._L0207:
3698   09CC       3216                         CPI       _ACCA, 9931 SHRB 8
3699   09D0                                    .BRANCH   3,NoisePlayer._L0211
3700   09CD       F011                         BREQ      NoisePlayer._L0211
3701   0A27                                    .BRANCH   20,NoisePlayer._L0210
3702   09CE   940C0A27                         JMP       NoisePlayer._L0210
3703   09D0            NoisePlayer._L0211:
3704   09D0       3C0B                         CPI       _ACCB, 9931 AND 0FFh
3705   09D4                                    .BRANCH   3,NoisePlayer._L0212
3706   09D1       F011                         BREQ      NoisePlayer._L0212
3707   0A27                                    .BRANCH   20,NoisePlayer._L0210
3708   09D2   940C0A27                         JMP       NoisePlayer._L0210
3709   09D4            NoisePlayer._L0212:
3710   09D4            NoisePlayer._L0206:
3711   09D4                                    .BLOCK    108
3712   09D4                                    .LINE     108
3713   0680                                    .BRANCH   17,NoisePlayer.DF_CHECKPROTECTED
3714   09D4   940E0680                         CALL       NoisePlayer.DF_CHECKPROTECTED
3715   09D6            
3716   09D6       9510                         COM       _ACCA
3717   09D7       2311                         TST       _ACCA
3718   09DB                                    .BRANCH   4,NoisePlayer._L0215
3719   09D8       F411                         BRNE      NoisePlayer._L0215
3720   0A25                                    .BRANCH   20,NoisePlayer._L0213
3721   09D9   940C0A25                         JMP       NoisePlayer._L0213
3722   09DB            NoisePlayer._L0215:
3723   09DB                                    .BLOCK    108
3724   09DB                                    .LINE     109
3725   09DB   9100015C                         LDS       _ACCB, NoisePlayer.ParamLong
3726   09DD   9110015D                         LDS       _ACCA, NoisePlayer.ParamLong+1
3727   09DF   9120015E                         LDS       _ACCALO, NoisePlayer.ParamLong+2
3728   09E1   9130015F                         LDS       _ACCAHI, NoisePlayer.ParamLong+3
3729   09E3       E0EC                         LDI       _ACCCLO, 00Ch
3730   09E4   940E178F                         CALL      SYSTEM.SHL32
3731   09E6   9300015C                         STS       NOISEPLAYER.PARAMLONG, _ACCB
3732   09E8   9310015D                         STS       NOISEPLAYER.PARAMLONG+1, _ACCA
3733   09EA   9320015E                         STS       NOISEPLAYER.PARAMLONG+2, _ACCALO
3734   09EC   9330015F                         STS       NOISEPLAYER.PARAMLONG+3, _ACCAHI
3735   09EE                                    .LINE     110
3736   09EE       93CF                         PUSH      _FRAMEPTR
3737   09EF       93DF                         PUSH      _FPTRHI
3738   09F0   9100015C                         LDS       _ACCB, NoisePlayer.ParamLong
3739   09F2   9110015D                         LDS       _ACCA, NoisePlayer.ParamLong+1
3740   09F4   9120015E                         LDS       _ACCALO, NoisePlayer.ParamLong+2
3741   09F6   9130015F                         LDS       _ACCAHI, NoisePlayer.ParamLong+3
3742   09F8       933A                         ST        -Y, _ACCAHI
3743   09F9       932A                         ST        -Y, _ACCALO
3744   09FA       931A                         ST        -Y, _ACCA
3745   09FB       930A                         ST        -Y, _ACCB
3746   09FC                                    .FRAME  4
3747   09FC                                    .FRAME  0
3748   0387                                    .BRANCH   17,NoisePlayer.XMODEMRXTODF
3749   09FC   940E0387                         CALL      NoisePlayer.XMODEMRXTODF
3750   09FE       91DF                         POP       _FPTRHI
3751   09FF       91CF                         POP       _FRAMEPTR
3752   0A00            
3753   0A00                                    .LINE     111
3754   0A00   9100015C                         LDS       _ACCB, NoisePlayer.ParamLong
3755   0A02   9110015D                         LDS       _ACCA, NoisePlayer.ParamLong+1
3756   0A04   9120015E                         LDS       _ACCALO, NoisePlayer.ParamLong+2
3757   0A06   9130015F                         LDS       _ACCAHI, NoisePlayer.ParamLong+3
3758   0A08       E840                         LDI       _ACCDLO, 080h
3759   0A09       2734                         EOR       _ACCAHI, _ACCDLO
3760   0A0A       3830                         CPI       _ACCAHI, 080h
3761   0A0B       F429                         BRNE      NoisePlayer._L0216
3762   0A0C       3020                         CPI       _ACCALO, 000h
3763   0A0D       F419                         BRNE      NoisePlayer._L0216
3764   0A0E       3010                         CPI       _ACCA, 000h
3765   0A0F       F409                         BRNE      NoisePlayer._L0216
3766   0A10       3000                         CPI       _ACCB, 000h
3767   0A11            NoisePlayer._L0216:
3768   0A11       EF1F                         LDI       _ACCA, 0FFh
3769   0A12       F008                         BRLO      NoisePlayer._L0217
3770   0A13       2711                         CLR       _ACCA
3771   0A14            NoisePlayer._L0217:
3772   0A14       2311                         TST       _ACCA
3773   0A18                                    .BRANCH   4,NoisePlayer._L0220
3774   0A15       F411                         BRNE      NoisePlayer._L0220
3775   0A1F                                    .BRANCH   20,NoisePlayer._L0218
3776   0A16   940C0A1F                         JMP       NoisePlayer._L0218
3777   0A18            NoisePlayer._L0220:
3778   0A18                                    .BLOCK    111
3779   0A18                                    .LINE     112
3780   0A18   911001B8                         LDS       _ACCA, 001B8h
3781   0A1A       6014                         SBR       _ACCA, 004h
3782   0A1B   931001B8                         STS       001B8h, _ACCA
3783   0A1D                                    .ENDBLOCK 113
3784   0A25                                    .BRANCH   20,NoisePlayer._L0219
3785   0A1D   940C0A25                         JMP       NoisePlayer._L0219
3786   0A1F            NoisePlayer._L0218:
3787   0A1F                                    .BLOCK    113
3788   0A1F                                    .LINE     114
3789   0A1F       E010                         LDI       _ACCA, 00064h SHRB 8
3790   0A20       E604                         LDI       _ACCB, 00064h AND 0FFh
3791   0A21                                    .FRAME  0
3792   0A21   940E127C                         CALL      SYSTEM.MDELAY
3793   0A23            
3794   0A23                                    .LINE     115
3795   02F8                                    .BRANCH   17,NoisePlayer.WRITEPARAMLONGSERHEX
3796   0A23   940E02F8                         CALL      NoisePlayer.WRITEPARAMLONGSERHEX
3797   0A25            
3798   0A25                                    .ENDBLOCK 116
3799   0A25            NoisePlayer._L0219:
3800   0A25                                    .ENDBLOCK 117
3801   0A25            NoisePlayer._L0213:
3802   0A25            NoisePlayer._L0214:
3803   0A25                                    .ENDBLOCK 118
3804   0AD2                                    .BRANCH   20,NoisePlayer._L0185
3805   0A25   940C0AD2                         JMP       NoisePlayer._L0185
3806   0A27            NoisePlayer._L0210:
3807   0A27                                    .LINE     119
3808   0A27       3216                         CPI       _ACCA, 9940 SHRB 8
3809   0A2B                                    .BRANCH   3,NoisePlayer._L0223
3810   0A28       F011                         BREQ      NoisePlayer._L0223
3811   0A31                                    .BRANCH   20,NoisePlayer._L0222
3812   0A29   940C0A31                         JMP       NoisePlayer._L0222
3813   0A2B            NoisePlayer._L0223:
3814   0A2B       3D04                         CPI       _ACCB, 9940 AND 0FFh
3815   0A2F                                    .BRANCH   3,NoisePlayer._L0224
3816   0A2C       F011                         BREQ      NoisePlayer._L0224
3817   0A31                                    .BRANCH   20,NoisePlayer._L0222
3818   0A2D   940C0A31                         JMP       NoisePlayer._L0222
3819   0A2F            NoisePlayer._L0224:
3820   0A39                                    .BRANCH   20,NoisePlayer._L0221
3821   0A2F   940C0A39                         JMP       NoisePlayer._L0221
3822   0A31            NoisePlayer._L0222:
3823   0A31       3216                         CPI       _ACCA, 9941 SHRB 8
3824   0A35                                    .BRANCH   3,NoisePlayer._L0226
3825   0A32       F011                         BREQ      NoisePlayer._L0226
3826   0A88                                    .BRANCH   20,NoisePlayer._L0225
3827   0A33   940C0A88                         JMP       NoisePlayer._L0225
3828   0A35            NoisePlayer._L0226:
3829   0A35       3D05                         CPI       _ACCB, 9941 AND 0FFh
3830   0A39                                    .BRANCH   3,NoisePlayer._L0227
3831   0A36       F011                         BREQ      NoisePlayer._L0227
3832   0A88                                    .BRANCH   20,NoisePlayer._L0225
3833   0A37   940C0A88                         JMP       NoisePlayer._L0225
3834   0A39            NoisePlayer._L0227:
3835   0A39            NoisePlayer._L0221:
3836   0A39                                    .BLOCK    120
3837   0A39                                    .LINE     120
3838   0680                                    .BRANCH   17,NoisePlayer.DF_CHECKPROTECTED
3839   0A39   940E0680                         CALL       NoisePlayer.DF_CHECKPROTECTED
3840   0A3B            
3841   0A3B       9510                         COM       _ACCA
3842   0A3C       2311                         TST       _ACCA
3843   0A40                                    .BRANCH   4,NoisePlayer._L0230
3844   0A3D       F411                         BRNE      NoisePlayer._L0230
3845   0A86                                    .BRANCH   20,NoisePlayer._L0228
3846   0A3E   940C0A86                         JMP       NoisePlayer._L0228
3847   0A40            NoisePlayer._L0230:
3848   0A40                                    .BLOCK    120
3849   0A40                                    .LINE     121
3850   0A40   9100015C                         LDS       _ACCB, NoisePlayer.ParamLong
3851   0A42   9110015D                         LDS       _ACCA, NoisePlayer.ParamLong+1
3852   0A44   9120015E                         LDS       _ACCALO, NoisePlayer.ParamLong+2
3853   0A46   9130015F                         LDS       _ACCAHI, NoisePlayer.ParamLong+3
3854   0A48       E0EC                         LDI       _ACCCLO, 00Ch
3855   0A49   940E178F                         CALL      SYSTEM.SHL32
3856   0A4B   9300015C                         STS       NOISEPLAYER.PARAMLONG, _ACCB
3857   0A4D   9310015D                         STS       NOISEPLAYER.PARAMLONG+1, _ACCA
3858   0A4F   9320015E                         STS       NOISEPLAYER.PARAMLONG+2, _ACCALO
3859   0A51   9330015F                         STS       NOISEPLAYER.PARAMLONG+3, _ACCAHI
3860   0A53                                    .LINE     122
3861   0A53       93CF                         PUSH      _FRAMEPTR
3862   0A54       93DF                         PUSH      _FPTRHI
3863   0A55   9100015C                         LDS       _ACCB, NoisePlayer.ParamLong
3864   0A57   9110015D                         LDS       _ACCA, NoisePlayer.ParamLong+1
3865   0A59   9120015E                         LDS       _ACCALO, NoisePlayer.ParamLong+2
3866   0A5B   9130015F                         LDS       _ACCAHI, NoisePlayer.ParamLong+3
3867   0A5D       933A                         ST        -Y, _ACCAHI
3868   0A5E       932A                         ST        -Y, _ACCALO
3869   0A5F       931A                         ST        -Y, _ACCA
3870   0A60       930A                         ST        -Y, _ACCB
3871   0A61                                    .FRAME  4
3872   0A61                                    .FRAME  0
3873   0091                                    .BRANCH   17,NoisePlayer.DFERASEBLOCK
3874   0A61   940E0091                         CALL       NoisePlayer.DFERASEBLOCK
3875   0A63       91DF                         POP       _FPTRHI
3876   0A64       91CF                         POP       _FRAMEPTR
3877   0A65            
3878   0A65       9510                         COM       _ACCA
3879   0A66       2311                         TST       _ACCA
3880   0A6A                                    .BRANCH   4,NoisePlayer._L0233
3881   0A67       F411                         BRNE      NoisePlayer._L0233
3882   0A84                                    .BRANCH   20,NoisePlayer._L0231
3883   0A68   940C0A84                         JMP       NoisePlayer._L0231
3884   0A6A            NoisePlayer._L0233:
3885   0A6A                                    .BLOCK    122
3886   0A6A                                    .LINE     123
3887   01E5                                    .BRANCH   17,NoisePlayer.WRITECHPREFIX
3888   0A6A   940E01E5                         CALL      NoisePlayer.WRITECHPREFIX
3889   0A6C            
3890   0A6C                                    .LINE     124
3891   0A6C       93CF                         PUSH      _FRAMEPTR
3892   0A6D       93DF                         PUSH      _FPTRHI
3893   0A6E       E018                         LDI       _ACCA, 1 SHLB _DEVICE
3894   0A6F       2A41                         OR        Flags, _ACCA
3895   0A70       E50A                         LDI       _ACCB, SYSTEM.SerOut SHRB 1
3896   0A71       E112                         LDI       _ACCA, SYSTEM.SerOut SHRB 9
3897   0A72       931A                         ST        -Y, _ACCA
3898   0A73       930A                         ST        -Y, _ACCB
3899   0A74                                    .FRAME  2
3900   0A74       E0E2                         LDI       _ACCCLO, $St_String9 AND 0FFh
3901   0A75       E3F0                         LDI       _ACCCHI, $St_String9 SHRB 8
3902   0A76   940E1439                         CALL      SYSTEM.StrConst2Str
3903   0A78            NoisePlayer._L0234:
3904   0A78       E01D                         LDI       _ACCA, 00Dh
3905   0A79   940E1701                         CALL      SYSTEM.Char2Str
3906   0A7B       E01A                         LDI       _ACCA, 00Ah
3907   0A7C   940E1701                         CALL      SYSTEM.Char2Str
3908   0A7E       91DF                         POP       _FPTRHI
3909   0A7F       91CF                         POP       _FRAMEPTR
3910   0A80                                    .FRAME  0
3911   0A80                                    .LINE     125
3912   0AFA                                    .BRANCH   20,NoisePlayer.ParseSetParam_X
3913   0A80   940C0AFA                         JMP       NoisePlayer.ParseSetParam_X
3914   0A82                                    .ENDBLOCK 126
3915   0A86                                    .BRANCH   20,NoisePlayer._L0232
3916   0A82   940C0A86                         JMP       NoisePlayer._L0232
3917   0A84            NoisePlayer._L0231:
3918   0A84                                    .BLOCK    126
3919   0A84                                    .LINE     127
3920   02F8                                    .BRANCH   17,NoisePlayer.WRITEPARAMLONGSERHEX
3921   0A84   940E02F8                         CALL      NoisePlayer.WRITEPARAMLONGSERHEX
3922   0A86            
3923   0A86                                    .ENDBLOCK 128
3924   0A86            NoisePlayer._L0232:
3925   0A86                                    .ENDBLOCK 129
3926   0A86            NoisePlayer._L0228:
3927   0A86            NoisePlayer._L0229:
3928   0A86                                    .ENDBLOCK 130
3929   0AD2                                    .BRANCH   20,NoisePlayer._L0185
3930   0A86   940C0AD2                         JMP       NoisePlayer._L0185
3931   0A88            NoisePlayer._L0225:
3932   0A88                                    .LINE     131
3933   0A88       3216                         CPI       _ACCA, 9942 SHRB 8
3934   0A8C                                    .BRANCH   3,NoisePlayer._L0237
3935   0A89       F011                         BREQ      NoisePlayer._L0237
3936   0AC8                                    .BRANCH   20,NoisePlayer._L0236
3937   0A8A   940C0AC8                         JMP       NoisePlayer._L0236
3938   0A8C            NoisePlayer._L0237:
3939   0A8C       3D06                         CPI       _ACCB, 9942 AND 0FFh
3940   0A90                                    .BRANCH   3,NoisePlayer._L0238
3941   0A8D       F011                         BREQ      NoisePlayer._L0238
3942   0AC8                                    .BRANCH   20,NoisePlayer._L0236
3943   0A8E   940C0AC8                         JMP       NoisePlayer._L0236
3944   0A90            NoisePlayer._L0238:
3945   0A90            NoisePlayer._L0235:
3946   0A90                                    .BLOCK    132
3947   0A90                                    .LINE     132
3948   0680                                    .BRANCH   17,NoisePlayer.DF_CHECKPROTECTED
3949   0A90   940E0680                         CALL       NoisePlayer.DF_CHECKPROTECTED
3950   0A92            
3951   0A92       9510                         COM       _ACCA
3952   0A93       2311                         TST       _ACCA
3953   0A97                                    .BRANCH   4,NoisePlayer._L0241
3954   0A94       F411                         BRNE      NoisePlayer._L0241
3955   0AC6                                    .BRANCH   20,NoisePlayer._L0239
3956   0A95   940C0AC6                         JMP       NoisePlayer._L0239
3957   0A97            NoisePlayer._L0241:
3958   0A97                                    .BLOCK    132
3959   0A97                                    .LINE     133
3960   00CC                                    .BRANCH   17,NoisePlayer.DF_ERASE
3961   0A97   940E00CC                         CALL       NoisePlayer.DF_ERASE
3962   0A99            
3963   0A99       9510                         COM       _ACCA
3964   0A9A       2311                         TST       _ACCA
3965   0A9E                                    .BRANCH   4,NoisePlayer._L0244
3966   0A9B       F411                         BRNE      NoisePlayer._L0244
3967   0AB8                                    .BRANCH   20,NoisePlayer._L0242
3968   0A9C   940C0AB8                         JMP       NoisePlayer._L0242
3969   0A9E            NoisePlayer._L0244:
3970   0A9E                                    .BLOCK    133
3971   0A9E                                    .LINE     134
3972   01E5                                    .BRANCH   17,NoisePlayer.WRITECHPREFIX
3973   0A9E   940E01E5                         CALL      NoisePlayer.WRITECHPREFIX
3974   0AA0            
3975   0AA0                                    .LINE     135
3976   0AA0       93CF                         PUSH      _FRAMEPTR
3977   0AA1       93DF                         PUSH      _FPTRHI
3978   0AA2       E018                         LDI       _ACCA, 1 SHLB _DEVICE
3979   0AA3       2A41                         OR        Flags, _ACCA
3980   0AA4       E50A                         LDI       _ACCB, SYSTEM.SerOut SHRB 1
3981   0AA5       E112                         LDI       _ACCA, SYSTEM.SerOut SHRB 9
3982   0AA6       931A                         ST        -Y, _ACCA
3983   0AA7       930A                         ST        -Y, _ACCB
3984   0AA8                                    .FRAME  2
3985   0AA8       E1EB                         LDI       _ACCCLO, $St_String10 AND 0FFh
3986   0AA9       E3F0                         LDI       _ACCCHI, $St_String10 SHRB 8
3987   0AAA   940E1439                         CALL      SYSTEM.StrConst2Str
3988   0AAC            NoisePlayer._L0245:
3989   0AAC       E01D                         LDI       _ACCA, 00Dh
3990   0AAD   940E1701                         CALL      SYSTEM.Char2Str
3991   0AAF       E01A                         LDI       _ACCA, 00Ah
3992   0AB0   940E1701                         CALL      SYSTEM.Char2Str
3993   0AB2       91DF                         POP       _FPTRHI
3994   0AB3       91CF                         POP       _FRAMEPTR
3995   0AB4                                    .FRAME  0
3996   0AB4                                    .LINE     136
3997   0AFA                                    .BRANCH   20,NoisePlayer.ParseSetParam_X
3998   0AB4   940C0AFA                         JMP       NoisePlayer.ParseSetParam_X
3999   0AB6                                    .ENDBLOCK 137
4000   0AC6                                    .BRANCH   20,NoisePlayer._L0243
4001   0AB6   940C0AC6                         JMP       NoisePlayer._L0243
4002   0AB8            NoisePlayer._L0242:
4003   0AB8                                    .BLOCK    137
4004   0AB8                                    .LINE     138
4005   0AB8       E000                         LDI       _ACCB, 000000000h AND 0FFh
4006   0AB9       E010                         LDI       _ACCA, 000000000h SHRB 8
4007   0ABA       E020                         LDI       _ACCALO, 000000000h SHRB 16
4008   0ABB       E030                         LDI       _ACCAHI, 000000000h SHRB 24
4009   0ABC   9300015C                         STS       NOISEPLAYER.PARAMLONG, _ACCB
4010   0ABE   9310015D                         STS       NOISEPLAYER.PARAMLONG+1, _ACCA
4011   0AC0   9320015E                         STS       NOISEPLAYER.PARAMLONG+2, _ACCALO
4012   0AC2   9330015F                         STS       NOISEPLAYER.PARAMLONG+3, _ACCAHI
4013   0AC4                                    .LINE     139
4014   02F8                                    .BRANCH   17,NoisePlayer.WRITEPARAMLONGSERHEX
4015   0AC4   940E02F8                         CALL      NoisePlayer.WRITEPARAMLONGSERHEX
4016   0AC6            
4017   0AC6                                    .ENDBLOCK 140
4018   0AC6            NoisePlayer._L0243:
4019   0AC6                                    .ENDBLOCK 141
4020   0AC6            NoisePlayer._L0239:
4021   0AC6            NoisePlayer._L0240:
4022   0AC6                                    .ENDBLOCK 142
4023   0AD2                                    .BRANCH   20,NoisePlayer._L0185
4024   0AC6   940C0AD2                         JMP       NoisePlayer._L0185
4025   0AC8            NoisePlayer._L0236:
4026   0AC8                                    .BLOCK    143
4027   0AC8                                    .LINE     144
4028   0AC8       93CF                         PUSH      _FRAMEPTR
4029   0AC9       93DF                         PUSH      _FPTRHI
4030   0ACA       E015                         LDI       _ACCA, 005h
4031   0ACB       931A                         ST        -Y, _ACCA
4032   0ACC                                    .FRAME  1
4033   0ACC                                    .FRAME  0
4034   022B                                    .BRANCH   17,NoisePlayer.SERPROMPT
4035   0ACC   940E022B                         CALL      NoisePlayer.SERPROMPT
4036   0ACE       91DF                         POP       _FPTRHI
4037   0ACF       91CF                         POP       _FRAMEPTR
4038   0AD0            
4039   0AD0                                    .LINE     145
4040   0AFA                                    .BRANCH   20,NoisePlayer.ParseSetParam_X
4041   0AD0   940C0AFA                         JMP       NoisePlayer.ParseSetParam_X
4042   0AD2                                    .ENDBLOCK 146
4043   0AD2            NoisePlayer._L0185:
4044   0AD2                                    .LINE     147
4045   0AD2   911001B7                         LDS       _ACCA, 001B7h
4046   0AD4       7E1F                         CBR       _ACCA, 010h
4047   0AD5   931001B7                         STS       001B7h, _ACCA
4048   0AD7                                    .LINE     148
4049   0AD7   91000154                         LDS       _ACCB, NoisePlayer.SubCh
4050   0AD9   91100155                         LDS       _ACCA, NoisePlayer.SubCh+1
4051   0ADB       E8A0                         LDI       _ACCBLO, 080h
4052   0ADC       271A                         EOR       _ACCA, _ACCBLO
4053   0ADD       3810                         CPI       _ACCA, 080h
4054   0ADE       F409                         BRNE      NoisePlayer._L0246
4055   0ADF       3F0A                         CPI       _ACCB, 0FAh
4056   0AE0            NoisePlayer._L0246:
4057   0AE0       E010                         LDI       _ACCA, 0h
4058   0AE1       F409                         BRNE      NoisePlayer._L0247
4059   0AE2       EF1F                         SER       _ACCA
4060   0AE3            NoisePlayer._L0247:
4061   0AE3       2311                         TST       _ACCA
4062   0AE7                                    .BRANCH   4,NoisePlayer._L0250
4063   0AE4       F411                         BRNE      NoisePlayer._L0250
4064   0AEC                                    .BRANCH   20,NoisePlayer._L0248
4065   0AE5   940C0AEC                         JMP       NoisePlayer._L0248
4066   0AE7            NoisePlayer._L0250:
4067   0AE7                                    .BLOCK    149
4068   0AE7                                    .LINE     149
4069   0AE7   911001B7                         LDS       _ACCA, 001B7h
4070   0AE9       6110                         SBR       _ACCA, 010h
4071   0AEA   931001B7                         STS       001B7h, _ACCA
4072   0AEC                                    .ENDBLOCK 150
4073   0AEC            NoisePlayer._L0248:
4074   0AEC            NoisePlayer._L0249:
4075   0AEC                                    .LINE     151
4076   0AEC   91100158                         LDS       _ACCA, NoisePlayer.verbose
4077   0AEE       2311                         TST       _ACCA
4078   0AF2                                    .BRANCH   4,NoisePlayer._L0253
4079   0AEF       F411                         BRNE      NoisePlayer._L0253
4080   0AFA                                    .BRANCH   20,NoisePlayer._L0251
4081   0AF0   940C0AFA                         JMP       NoisePlayer._L0251
4082   0AF2            NoisePlayer._L0253:
4083   0AF2                                    .BLOCK    151
4084   0AF2                                    .LINE     152
4085   0AF2       93CF                         PUSH      _FRAMEPTR
4086   0AF3       93DF                         PUSH      _FPTRHI
4087   0AF4       E010                         LDI       _ACCA, 000h
4088   0AF5       931A                         ST        -Y, _ACCA
4089   0AF6                                    .FRAME  1
4090   0AF6                                    .FRAME  0
4091   022B                                    .BRANCH   17,NoisePlayer.SERPROMPT
4092   0AF6   940E022B                         CALL      NoisePlayer.SERPROMPT
4093   0AF8       91DF                         POP       _FPTRHI
4094   0AF9       91CF                         POP       _FRAMEPTR
4095   0AFA            
4096   0AFA                                    .ENDBLOCK 153
4097   0AFA            NoisePlayer._L0251:
4098   0AFA            NoisePlayer._L0252:
4099   0AFA                                    .ENDBLOCK 154
4100   0AFA            NoisePlayer.ParseSetParam_X:
4101   0AFA                                    .LINE     154
4102   0000                                    .BRANCH   19
4103   0AFA       9508                         RET
4104   0AFB                                    .ENDFUNC  154
4105   0AFB            
4106   0AFB                                    .FUNC     Cmd2Index, 000A2h, 00020h
4107   0AFB            NoisePlayer.Cmd2Index:
4108   0AFB                                    .RETURNS   1
4109   0AFB       9721                         SBIW      _FRAMEPTR, 1
4110   0AFC                                    .BLOCK    165
4111   0AFC                                    .LINE     166
4112   0AFC       E8EC                         LDI       _ACCCLO, NoisePlayer.ParamStr AND 0FFh
4113   0AFD       E0F1                         LDI       _ACCCHI, NoisePlayer.ParamStr SHRB 8
4114   0AFE       93EF                         PUSH      _ACCCLO
4115   0AFF       93FF                         PUSH      _ACCCHI
4116   0B00       9631                         ADIW      _ACCCLO, 1
4117   0B01       93FA                         ST        -Y, _ACCCHI
4118   0B02       93EA                         ST        -Y, _ACCCLO
4119   0B03       E218                         LDI       _ACCA, 028h
4120   0B04       931A                         ST        -Y, _ACCA
4121   0B05       EF17                         LDI       _ACCA, 0FEH ROLB _DEVICE
4122   0B06       2241                         AND       Flags, _ACCA
4123   0B07       EB1F                         LDI       _ACCA, 0FEH ROLB _EEPROM
4124   0B08       2241                         AND       Flags, _ACCA
4125   0B09                                    .FRAME  3
4126   0B09       E8EC                         LDI       _ACCCLO, NoisePlayer.ParamStr AND 0FFh
4127   0B0A       E0F1                         LDI       _ACCCHI, NoisePlayer.ParamStr SHRB 8
4128   0B0B   940E1416                         CALL      SYSTEM.UpperCaseStr
4129   0B0D       E218                         LDI       _ACCA, 028h
4130   0B0E       931F                         PUSH      _ACCA
4131   0B0F       8118                         LDD       _ACCA, Y+000h
4132   0B10       910F                         POP       _ACCB
4133   0B11       1B01                         SUB       _ACCB, _ACCA
4134   0B12       2F10                         MOV       _ACCA, _ACCB
4135   0B13       91FF                         POP       _ACCCHI
4136   0B14       91EF                         POP       _ACCCLO
4137   0B15       8310                         ST        Z, _ACCA
4138   0B16       9623                         ADIW      _FRAMEPTR, 3
4139   0B17                                    .FRAME  0
4140   0B17                                    .LINE     167
4141   0B17                                    .LOOP
4142   0B17       01FE                         MOVW      _ACCCLO, _FRAMEPTR
4143   0B18                                    .LOOP_B
4144   0B18       93FA                         ST        -Y, _ACCCHI
4145   0B19       93EA                         ST        -Y, _ACCCLO
4146   0B1A                                    .FRAME  2
4147   0B1A       E010                         LDI       _ACCA, 000h
4148   0B1B       8310                         ST        Z, _ACCA
4149   0B1C       E01E                         LDI       _ACCA, 00Eh
4150   0B1D       931A                         ST        -Y, _ACCA
4151   0B1E                                    .FRAME  3
4152   0B1E       8110                         LD        _ACCA, Z
4153   0B1F            NoisePlayer._L0256:
4154   0B1F       8108                         LDD       _ACCB, Y+000h
4155   0B20       1701                         CP        _ACCB, _ACCA
4156   0B21       EF1F                         LDI       _ACCA, 0FFh
4157   0B22       F008                         BRLO      NoisePlayer._L0257
4158   0B23       2711                         CLR       _ACCA
4159   0B24            NoisePlayer._L0257:
4160   0B24       2311                         TST       _ACCA
4161   0B28                                    .BRANCH   3,NoisePlayer._L0258
4162   0B25       F011                         BREQ      NoisePlayer._L0258
4163   0B57                                    .BRANCH   20,NoisePlayer._L0255
4164   0B26   940C0B57                         JMP       NoisePlayer._L0255
4165   0B28            NoisePlayer._L0258:
4166   0B28                                    .BLOCK    168
4167   0B28                                    .LINE     168
4168   0B28       E8EC                         LDI       _ACCCLO, NoisePlayer.ParamStr AND 0FFh
4169   0B29       E0F1                         LDI       _ACCCHI, NoisePlayer.ParamStr SHRB 8
4170   0B2A       93EF                         PUSH      _ACCCLO
4171   0B2B       93FF                         PUSH      _ACCCHI
4172   0B2C       E8EE                         LDI       _ACCCLO, NoisePlayer.CmdStrArr AND 0FFh
4173   0B2D       E3F0                         LDI       _ACCCHI, NoisePlayer.CmdStrArr SHRB 8
4174   0B2E       93EF                         PUSH      _ACCCLO
4175   0B2F       93FF                         PUSH      _ACCCHI
4176   0B30       811B                         LDD       _ACCA, Y+003h
4177   0B31       2F01                         MOV       _ACCB, _ACCA
4178   0B32       2711                         CLR       _ACCA
4179   0B33       E0A4                         LDI       _ACCBLO, 00004h AND 0FFh
4180   0B34       E0B0                         LDI       _ACCBHI, 00004h SHRB 8
4181   0B35       94E8                         CLT
4182   0B36       F845                         BLD       Flags, _SIGN
4183   0B37   940E173E                         CALL      SYSTEM.MUL16
4184   0B39       91FF                         POP       _ACCCHI
4185   0B3A       91EF                         POP       _ACCCLO
4186   0B3B       0FE0                         ADD       _ACCCLO, _ACCB
4187   0B3C       1FF1                         ADC       _ACCCHI, _ACCA
4188   0B3D       91BF                         POP       _ACCBHI
4189   0B3E       91AF                         POP       _ACCBLO
4190   0B3F       9468                         SET
4191   0B40       F844                         BLD       Flags, _STRCONST
4192   0B41   940E16DB                         CALL      SYSTEM.StringComp
4193   0B43       E010                         LDI       _ACCA, 0h
4194   0B44       F409                         BRNE      NoisePlayer._L0259
4195   0B45       EF1F                         SER       _ACCA
4196   0B46            NoisePlayer._L0259:
4197   0B46       2311                         TST       _ACCA
4198   0B4A                                    .BRANCH   4,NoisePlayer._L0262
4199   0B47       F411                         BRNE      NoisePlayer._L0262
4200   0B4E                                    .BRANCH   20,NoisePlayer._L0260
4201   0B48   940C0B4E                         JMP       NoisePlayer._L0260
4202   0B4A            NoisePlayer._L0262:
4203   0B4A                                    .BLOCK    168
4204   0B4A                                    .LINE     169
4205   0B4A       811B                         LDD       _ACCA, Y+003h
4206   0B4B       9623                         ADIW      _FRAMEPTR, 3
4207   0B59                                    .BRANCH   20,NoisePlayer.Cmd2Index_X
4208   0B4C   940C0B59                         JMP       NoisePlayer.Cmd2Index_X
4209   0B4E                                    .ENDBLOCK 170
4210   0B4E            NoisePlayer._L0260:
4211   0B4E            NoisePlayer._L0261:
4212   0B4E                                    .ENDBLOCK 171
4213   0B4E            NoisePlayer._L0254:
4214   0B4E                                    .LINE     171
4215   0B4E       81E9                         LDD       _ACCCLO, Y+001h
4216   0B4F       81FA                         LDD       _ACCCHI, Y+002h
4217   0B50       8110                         LD        _ACCA, Z
4218   0B51       9513                         INC       _ACCA
4219   0B52       8310                         ST        Z, _ACCA
4220   0B53       2311                         TST       _ACCA
4221   0B57                                    .BRANCH   3,NoisePlayer._L0255
4222   0B54       F011                         BREQ      NoisePlayer._L0255
4223   0B1F                                    .BRANCH   20,NoisePlayer._L0256
4224   0B55   940C0B1F                         JMP       NoisePlayer._L0256
4225   0B57            NoisePlayer._L0255:
4226   0B57       9623                         ADIW      _FRAMEPTR, 3
4227   0B58                                    .FRAME  0
4228   0B58                                    .ENDLOOP
4229   0B58                                    .LINE     172
4230   0B58       E01F                         LDI       _ACCA, 00Fh
4231   0B59                                    .ENDBLOCK 173
4232   0B59            NoisePlayer.Cmd2Index_X:
4233   0B59                                    .LINE     173
4234   0000                                    .BRANCH   19
4235   0B59       9508                         RET
4236   0B5A                                    .ENDFUNC  173
4237   0B5A            
4238   0B5A                                    .FUNC     ParseExtract, 000AFh, 00020h
4239   0B5A            NoisePlayer.ParseExtract:
4240   0B5A                                    .RETURNS   1
4241   0B5A       9722                         SBIW      _FRAMEPTR, 2
4242   0B5B                                    .BLOCK    180
4243   0B5B                                    .LINE     181
4244   0B5B       E8EC                         LDI       _ACCCLO, NoisePlayer.ParamStr AND 0FFh
4245   0B5C       E0F1                         LDI       _ACCCHI, NoisePlayer.ParamStr SHRB 8
4246   0B5D       93EF                         PUSH      _ACCCLO
4247   0B5E       93FF                         PUSH      _ACCCHI
4248   0B5F       9631                         ADIW      _ACCCLO, 1
4249   0B60       93FA                         ST        -Y, _ACCCHI
4250   0B61       93EA                         ST        -Y, _ACCCLO
4251   0B62       E218                         LDI       _ACCA, 028h
4252   0B63       931A                         ST        -Y, _ACCA
4253   0B64       EF17                         LDI       _ACCA, 0FEH ROLB _DEVICE
4254   0B65       2241                         AND       Flags, _ACCA
4255   0B66       EB1F                         LDI       _ACCA, 0FEH ROLB _EEPROM
4256   0B67       2241                         AND       Flags, _ACCA
4257   0B68                                    .FRAME  3
4258   0B68       E218                         LDI       _ACCA, 028h
4259   0B69       931F                         PUSH      _ACCA
4260   0B6A       8118                         LDD       _ACCA, Y+000h
4261   0B6B       910F                         POP       _ACCB
4262   0B6C       1B01                         SUB       _ACCB, _ACCA
4263   0B6D       2F10                         MOV       _ACCA, _ACCB
4264   0B6E       91FF                         POP       _ACCCHI
4265   0B6F       91EF                         POP       _ACCCLO
4266   0B70       8310                         ST        Z, _ACCA
4267   0B71       9623                         ADIW      _FRAMEPTR, 3
4268   0B72                                    .FRAME  0
4269   0B72                                    .LINE     182
4270   0B72       E010                         LDI       _ACCA, 000h
4271   0B73   9310015B                         STS       NOISEPLAYER.PARAMALPHA, _ACCA
4272   0B75                                    .LINE     183
4273   0B75       E010                         LDI       _ACCA, 000h
4274   0B76       8318                         STD       Y+000h, _ACCA
4275   0B77                                    .LINE     184
4276   0B77            NoisePlayer._L0263:
4277   0B77       E6E5                         LDI       _ACCCLO, NoisePlayer.SerInpStr AND 0FFh
4278   0B78       E0F1                         LDI       _ACCCHI, NoisePlayer.SerInpStr SHRB 8
4279   0B79   91100186                         LDS       _ACCA, NoisePlayer.ParsePtr
4280   0B7B       2F01                         MOV       _ACCB, _ACCA
4281   0B7C       2711                         CLR       _ACCA
4282   0B7D       0FE0                         ADD       _ACCCLO, _ACCB
4283   0B7E       1FF1                         ADC       _ACCCHI, _ACCA
4284   0B7F       9111                         LD        _ACCA, Z+
4285   0B80       3210                         CPI       _ACCA, 020h
4286   0B81       E010                         LDI       _ACCA, 0h
4287   0B82       F409                         BRNE      NoisePlayer._L0265
4288   0B83       EF1F                         SER       _ACCA
4289   0B84            NoisePlayer._L0265:
4290   0B84       2311                         TST       _ACCA
4291   0B88                                    .BRANCH   4,NoisePlayer._L0266
4292   0B85       F411                         BRNE      NoisePlayer._L0266
4293   0B8F                                    .BRANCH   20,NoisePlayer._L0264
4294   0B86   940C0B8F                         JMP       NoisePlayer._L0264
4295   0B88            NoisePlayer._L0266:
4296   0B88                                    .BLOCK    185
4297   0B88                                    .LINE     185
4298   0B88   91100186                         LDS       _ACCA, NoisePlayer.ParsePtr
4299   0B8A       9513                         INC       _ACCA
4300   0B8B   93100186                         STS       NoisePlayer.ParsePtr, _ACCA
4301   0B8D                                    .ENDBLOCK 186
4302   0B8D                                    .LINE     186
4303   0B77                                    .BRANCH   20,NoisePlayer._L0263
4304   0B8D   940C0B77                         JMP       NoisePlayer._L0263
4305   0B8F            NoisePlayer._L0264:
4306   0B8F                                    .LINE     187
4307   0B8F       E6E5                         LDI       _ACCCLO, NoisePlayer.SerInpStr AND 0FFh
4308   0B90       E0F1                         LDI       _ACCCHI, NoisePlayer.SerInpStr SHRB 8
4309   0B91   91100186                         LDS       _ACCA, NoisePlayer.ParsePtr
4310   0B93       2F01                         MOV       _ACCB, _ACCA
4311   0B94       2711                         CLR       _ACCA
4312   0B95       0FE0                         ADD       _ACCCLO, _ACCB
4313   0B96       1FF1                         ADC       _ACCCHI, _ACCA
4314   0B97       9111                         LD        _ACCA, Z+
4315   0B98       3319                         CPI       _ACCA, 039h
4316   0BA1                                    .BRANCH   3,NoisePlayer._L0267
4317   0B99       F039                         BREQ      NoisePlayer._L0267
4318   0BA0                                    .BRANCH   1,NoisePlayer._L0268
4319   0B9A       F428                         BRSH      NoisePlayer._L0268
4320   0B9B       321A                         CPI       _ACCA, 02Ah
4321   0BA0                                    .BRANCH   1,NoisePlayer._L0268
4322   0B9C       F018                         BRLO      NoisePlayer._L0268
4323   0B9D       E040                         LDI       _ACCDLO, 0
4324   0B9E       9418                         SEZ
4325   0BA1                                    .BRANCH   20,NoisePlayer._L0267
4326   0B9F       C001                         RJMP      NoisePlayer._L0267
4327   0BA0            NoisePlayer._L0268:
4328   0BA0       E041                         LDI       _ACCDLO, 001h
4329   0BA1            NoisePlayer._L0267:
4330   0BA1       E010                         LDI       _ACCA, 0h
4331   0BA2       F409                         BRNE      NoisePlayer._L0269
4332   0BA3       EF1F                         SER       _ACCA
4333   0BA4            NoisePlayer._L0269:
4334   0BA4       2311                         TST       _ACCA
4335   0BA8                                    .BRANCH   4,NoisePlayer._L0272
4336   0BA5       F411                         BRNE      NoisePlayer._L0272
4337   0C02                                    .BRANCH   20,NoisePlayer._L0270
4338   0BA6   940C0C02                         JMP       NoisePlayer._L0270
4339   0BA8            NoisePlayer._L0272:
4340   0BA8                                    .BLOCK    188
4341   0BA8                                    .LINE     188
4342   0BA8       EF1F                         LDI       _ACCA, 0FFh
4343   0BA9       8318                         STD       Y+000h, _ACCA
4344   0BAA                                    .LINE     189
4345   0BAA                                    .LOOP
4346   0BAA       E0E8                         LDI       _ACCCLO, NoisePlayer.i AND 0FFh
4347   0BAB       E0F0                         LDI       _ACCCHI, NoisePlayer.i SHRB 8
4348   0BAC       93FA                         ST        -Y, _ACCCHI
4349   0BAD       93EA                         ST        -Y, _ACCCLO
4350   0BAE                                    .FRAME  2
4351   0BAE   91100186                         LDS       _ACCA, NoisePlayer.ParsePtr
4352   0BB0       8310                         ST        Z, _ACCA
4353   0BB1       93EF                         PUSH      _ACCCLO
4354   0BB2       93FF                         PUSH      _ACCCHI
4355   0BB3       E6E5                         LDI       _ACCCLO, NoisePlayer.SerInpStr AND 0FFh
4356   0BB4       E0F1                         LDI       _ACCCHI, NoisePlayer.SerInpStr SHRB 8
4357   0BB5       8110                         LD        _ACCA, Z
4358   0BB6       91FF                         POP       _ACCCHI
4359   0BB7       91EF                         POP       _ACCCLO
4360   0BB8       931A                         ST        -Y, _ACCA
4361   0BB9                                    .FRAME  3
4362   0BB9       8110                         LD        _ACCA, Z
4363   0BBA            NoisePlayer._L0275:
4364   0BBA       8108                         LDD       _ACCB, Y+000h
4365   0BBB       1701                         CP        _ACCB, _ACCA
4366   0BBC       EF1F                         LDI       _ACCA, 0FFh
4367   0BBD       F008                         BRLO      NoisePlayer._L0276
4368   0BBE       2711                         CLR       _ACCA
4369   0BBF            NoisePlayer._L0276:
4370   0BBF       2311                         TST       _ACCA
4371   0BC3                                    .BRANCH   3,NoisePlayer._L0277
4372   0BC0       F011                         BREQ      NoisePlayer._L0277
4373   0BFF                                    .BRANCH   20,NoisePlayer._L0274
4374   0BC1   940C0BFF                         JMP       NoisePlayer._L0274
4375   0BC3            NoisePlayer._L0277:
4376   0BC3                                    .BLOCK    190
4377   0BC3                                    .LINE     190
4378   0BC3       E6E5                         LDI       _ACCCLO, NoisePlayer.SerInpStr AND 0FFh
4379   0BC4       E0F1                         LDI       _ACCCHI, NoisePlayer.SerInpStr SHRB 8
4380   0BC5       2D18                         MOV       _ACCA, NoisePlayer.i
4381   0BC6       2F01                         MOV       _ACCB, _ACCA
4382   0BC7       2711                         CLR       _ACCA
4383   0BC8       0FE0                         ADD       _ACCCLO, _ACCB
4384   0BC9       1FF1                         ADC       _ACCCHI, _ACCA
4385   0BCA       9111                         LD        _ACCA, Z+
4386   0BCB       831C                         STD       Y+004h, _ACCA
4387   0BCC                                    .LINE     191
4388   0BCC       811C                         LDD       _ACCA, Y+004h
4389   0BCD       3319                         CPI       _ACCA, 039h
4390   0BD6                                    .BRANCH   3,NoisePlayer._L0278
4391   0BCE       F039                         BREQ      NoisePlayer._L0278
4392   0BD5                                    .BRANCH   1,NoisePlayer._L0279
4393   0BCF       F428                         BRSH      NoisePlayer._L0279
4394   0BD0       321A                         CPI       _ACCA, 02Ah
4395   0BD5                                    .BRANCH   1,NoisePlayer._L0279
4396   0BD1       F018                         BRLO      NoisePlayer._L0279
4397   0BD2       E040                         LDI       _ACCDLO, 0
4398   0BD3       9418                         SEZ
4399   0BD6                                    .BRANCH   20,NoisePlayer._L0278
4400   0BD4       C001                         RJMP      NoisePlayer._L0278
4401   0BD5            NoisePlayer._L0279:
4402   0BD5       E041                         LDI       _ACCDLO, 001h
4403   0BD6            NoisePlayer._L0278:
4404   0BD6       E010                         LDI       _ACCA, 0h
4405   0BD7       F409                         BRNE      NoisePlayer._L0280
4406   0BD8       EF1F                         SER       _ACCA
4407   0BD9            NoisePlayer._L0280:
4408   0BD9       2311                         TST       _ACCA
4409   0BDD                                    .BRANCH   4,NoisePlayer._L0283
4410   0BDA       F411                         BRNE      NoisePlayer._L0283
4411   0BEF                                    .BRANCH   20,NoisePlayer._L0281
4412   0BDB   940C0BEF                         JMP       NoisePlayer._L0281
4413   0BDD            NoisePlayer._L0283:
4414   0BDD                                    .BLOCK    191
4415   0BDD                                    .LINE     192
4416   0BDD       811C                         LDD       _ACCA, Y+004h
4417   0BDE       2F71                         MOV       _ACCEHI, _ACCA
4418   0BDF       E061                         LDI       _ACCELO, 001h
4419   0BE0       E010                         LDI       _ACCA, _ACCELO SHRB 8
4420   0BE1       E106                         LDI       _ACCB, _ACCELO AND 0FFh
4421   0BE2       930F                         PUSH      _ACCB
4422   0BE3       931F                         PUSH      _ACCA
4423   0BE4       E8EC                         LDI       _ACCCLO, NoisePlayer.ParamStr AND 0FFh
4424   0BE5       E0F1                         LDI       _ACCCHI, NoisePlayer.ParamStr SHRB 8
4425   0BE6       93EF                         PUSH      _ACCCLO
4426   0BE7       93FF                         PUSH      _ACCCHI
4427   0BE8       E218                         LDI       _ACCA, 028h
4428   0BE9       931F                         PUSH      _ACCA
4429   0BEA       E090                         LDI       _ACCFHI, 000h
4430   0BEB   940E12D6                         CALL      SYSTEM.StringAppend
4431   0BED                                    .ENDBLOCK 194
4432   0BF6                                    .BRANCH   20,NoisePlayer._L0282
4433   0BED   940C0BF6                         JMP       NoisePlayer._L0282
4434   0BEF            NoisePlayer._L0281:
4435   0BEF                                    .BLOCK    194
4436   0BEF                                    .LINE     194
4437   0BEF       2D18                         MOV       _ACCA, NoisePlayer.i
4438   0BF0   93100186                         STS       NOISEPLAYER.PARSEPTR, _ACCA
4439   0BF2                                    .LINE     195
4440   0BF2       811B                         LDD       _ACCA, Y+003h
4441   0BF3       9623                         ADIW      _FRAMEPTR, 3
4442   0C82                                    .BRANCH   20,NoisePlayer.ParseExtract_X
4443   0BF4   940C0C82                         JMP       NoisePlayer.ParseExtract_X
4444   0BF6                                    .ENDBLOCK 196
4445   0BF6            NoisePlayer._L0282:
4446   0BF6                                    .ENDBLOCK 197
4447   0BF6            NoisePlayer._L0273:
4448   0BF6                                    .LINE     197
4449   0BF6       81E9                         LDD       _ACCCLO, Y+001h
4450   0BF7       81FA                         LDD       _ACCCHI, Y+002h
4451   0BF8       8110                         LD        _ACCA, Z
4452   0BF9       9513                         INC       _ACCA
4453   0BFA       8310                         ST        Z, _ACCA
4454   0BFB       2311                         TST       _ACCA
4455   0BFF                                    .BRANCH   3,NoisePlayer._L0274
4456   0BFC       F011                         BREQ      NoisePlayer._L0274
4457   0BBA                                    .BRANCH   20,NoisePlayer._L0275
4458   0BFD   940C0BBA                         JMP       NoisePlayer._L0275
4459   0BFF            NoisePlayer._L0274:
4460   0BFF       9623                         ADIW      _FRAMEPTR, 3
4461   0C00                                    .FRAME  0
4462   0C00                                    .ENDLOOP
4463   0C00                                    .ENDBLOCK 198
4464   0C81                                    .BRANCH   20,NoisePlayer._L0271
4465   0C00   940C0C81                         JMP       NoisePlayer._L0271
4466   0C02            NoisePlayer._L0270:
4467   0C02                                    .BLOCK    198
4468   0C02                                    .LINE     199
4469   0C02                                    .LOOP
4470   0C02       E0E8                         LDI       _ACCCLO, NoisePlayer.i AND 0FFh
4471   0C03       E0F0                         LDI       _ACCCHI, NoisePlayer.i SHRB 8
4472   0C04       93FA                         ST        -Y, _ACCCHI
4473   0C05       93EA                         ST        -Y, _ACCCLO
4474   0C06                                    .FRAME  2
4475   0C06   91100186                         LDS       _ACCA, NoisePlayer.ParsePtr
4476   0C08       8310                         ST        Z, _ACCA
4477   0C09       93EF                         PUSH      _ACCCLO
4478   0C0A       93FF                         PUSH      _ACCCHI
4479   0C0B       E6E5                         LDI       _ACCCLO, NoisePlayer.SerInpStr AND 0FFh
4480   0C0C       E0F1                         LDI       _ACCCHI, NoisePlayer.SerInpStr SHRB 8
4481   0C0D       8110                         LD        _ACCA, Z
4482   0C0E       91FF                         POP       _ACCCHI
4483   0C0F       91EF                         POP       _ACCCLO
4484   0C10       931A                         ST        -Y, _ACCA
4485   0C11                                    .FRAME  3
4486   0C11       8110                         LD        _ACCA, Z
4487   0C12            NoisePlayer._L0286:
4488   0C12       8108                         LDD       _ACCB, Y+000h
4489   0C13       1701                         CP        _ACCB, _ACCA
4490   0C14       EF1F                         LDI       _ACCA, 0FFh
4491   0C15       F008                         BRLO      NoisePlayer._L0287
4492   0C16       2711                         CLR       _ACCA
4493   0C17            NoisePlayer._L0287:
4494   0C17       2311                         TST       _ACCA
4495   0C1B                                    .BRANCH   3,NoisePlayer._L0288
4496   0C18       F011                         BREQ      NoisePlayer._L0288
4497   0C80                                    .BRANCH   20,NoisePlayer._L0285
4498   0C19   940C0C80                         JMP       NoisePlayer._L0285
4499   0C1B            NoisePlayer._L0288:
4500   0C1B                                    .BLOCK    200
4501   0C1B                                    .LINE     200
4502   0C1B       E6E5                         LDI       _ACCCLO, NoisePlayer.SerInpStr AND 0FFh
4503   0C1C       E0F1                         LDI       _ACCCHI, NoisePlayer.SerInpStr SHRB 8
4504   0C1D       2D18                         MOV       _ACCA, NoisePlayer.i
4505   0C1E       2F01                         MOV       _ACCB, _ACCA
4506   0C1F       2711                         CLR       _ACCA
4507   0C20       0FE0                         ADD       _ACCCLO, _ACCB
4508   0C21       1FF1                         ADC       _ACCCHI, _ACCA
4509   0C22       9111                         LD        _ACCA, Z+
4510   0C23       831C                         STD       Y+004h, _ACCA
4511   0C24                                    .LINE     201
4512   0C24       811C                         LDD       _ACCA, Y+004h
4513   0C25       3212                         CPI       _ACCA, 022h
4514   0C26       E010                         LDI       _ACCA, 0h
4515   0C27       F409                         BRNE      NoisePlayer._L0289
4516   0C28       EF1F                         SER       _ACCA
4517   0C29            NoisePlayer._L0289:
4518   0C29       2311                         TST       _ACCA
4519   0C2D                                    .BRANCH   4,NoisePlayer._L0292
4520   0C2A       F411                         BRNE      NoisePlayer._L0292
4521   0C32                                    .BRANCH   20,NoisePlayer._L0290
4522   0C2B   940C0C32                         JMP       NoisePlayer._L0290
4523   0C2D            NoisePlayer._L0292:
4524   0C2D                                    .BLOCK    201
4525   0C2D                                    .LINE     202
4526   0C2D       EF1F                         LDI       _ACCA, 0FFh
4527   0C2E   9310015B                         STS       NOISEPLAYER.PARAMALPHA, _ACCA
4528   0C30                                    .ENDBLOCK 203
4529   0C77                                    .BRANCH   20,NoisePlayer._L0291
4530   0C30   940C0C77                         JMP       NoisePlayer._L0291
4531   0C32            NoisePlayer._L0290:
4532   0C32                                    .BLOCK    203
4533   0C32                                    .LINE     204
4534   0C32       811C                         LDD       _ACCA, Y+004h
4535   0C33       3411                         CPI       _ACCA, 041h
4536   0C34       E010                         LDI       _ACCA, 0
4537   0C35       F008                         BRLO      NoisePlayer._L0293
4538   0C36       EF1F                         LDI       _ACCA, 0FFh
4539   0C37            NoisePlayer._L0293:
4540   0C37       931F                         PUSH      _ACCA
4541   0C38   9110015B                         LDS       _ACCA, NoisePlayer.ParamAlpha
4542   0C3A       910F                         POP       _ACCB
4543   0C3B       2B10                         OR        _ACCA, _ACCB
4544   0C3C       2311                         TST       _ACCA
4545   0C40                                    .BRANCH   4,NoisePlayer._L0296
4546   0C3D       F411                         BRNE      NoisePlayer._L0296
4547   0C71                                    .BRANCH   20,NoisePlayer._L0294
4548   0C3E   940C0C71                         JMP       NoisePlayer._L0294
4549   0C40            NoisePlayer._L0296:
4550   0C40                                    .BLOCK    204
4551   0C40                                    .LINE     205
4552   0C40       811C                         LDD       _ACCA, Y+004h
4553   0C41       3211                         CPI       _ACCA, 021h
4554   0C47                                    .BRANCH   3,NoisePlayer._L0297
4555   0C42       F021                         BREQ      NoisePlayer._L0297
4556   0C43       331F                         CPI       _ACCA, 03Fh
4557   0C47                                    .BRANCH   3,NoisePlayer._L0297
4558   0C44       F011                         BREQ      NoisePlayer._L0297
4559   0C45       3214                         CPI       _ACCA, 024h
4560   0C47                                    .BRANCH   3,NoisePlayer._L0297
4561   0C46       F001                         BREQ      NoisePlayer._L0297
4562   0C47            NoisePlayer._L0297:
4563   0C47       E010                         LDI       _ACCA, 0h
4564   0C48       F409                         BRNE      NoisePlayer._L0298
4565   0C49       EF1F                         SER       _ACCA
4566   0C4A            NoisePlayer._L0298:
4567   0C4A       2311                         TST       _ACCA
4568   0C4E                                    .BRANCH   4,NoisePlayer._L0301
4569   0C4B       F411                         BRNE      NoisePlayer._L0301
4570   0C57                                    .BRANCH   20,NoisePlayer._L0299
4571   0C4C   940C0C57                         JMP       NoisePlayer._L0299
4572   0C4E            NoisePlayer._L0301:
4573   0C4E                                    .BLOCK    205
4574   0C4E                                    .LINE     206
4575   0C4E       2D18                         MOV       _ACCA, NoisePlayer.i
4576   0C4F   93100186                         STS       NOISEPLAYER.PARSEPTR, _ACCA
4577   0C51                                    .LINE     207
4578   0C51       811B                         LDD       _ACCA, Y+003h
4579   0C52       9623                         ADIW      _FRAMEPTR, 3
4580   0C82                                    .BRANCH   20,NoisePlayer.ParseExtract_X
4581   0C53   940C0C82                         JMP       NoisePlayer.ParseExtract_X
4582   0C55                                    .ENDBLOCK 208
4583   0C67                                    .BRANCH   20,NoisePlayer._L0300
4584   0C55   940C0C67                         JMP       NoisePlayer._L0300
4585   0C57            NoisePlayer._L0299:
4586   0C57                                    .BLOCK    208
4587   0C57                                    .LINE     209
4588   0C57       811C                         LDD       _ACCA, Y+004h
4589   0C58       2F71                         MOV       _ACCEHI, _ACCA
4590   0C59       E061                         LDI       _ACCELO, 001h
4591   0C5A       E010                         LDI       _ACCA, _ACCELO SHRB 8
4592   0C5B       E106                         LDI       _ACCB, _ACCELO AND 0FFh
4593   0C5C       930F                         PUSH      _ACCB
4594   0C5D       931F                         PUSH      _ACCA
4595   0C5E       E8EC                         LDI       _ACCCLO, NoisePlayer.ParamStr AND 0FFh
4596   0C5F       E0F1                         LDI       _ACCCHI, NoisePlayer.ParamStr SHRB 8
4597   0C60       93EF                         PUSH      _ACCCLO
4598   0C61       93FF                         PUSH      _ACCCHI
4599   0C62       E218                         LDI       _ACCA, 028h
4600   0C63       931F                         PUSH      _ACCA
4601   0C64       E090                         LDI       _ACCFHI, 000h
4602   0C65   940E12D6                         CALL      SYSTEM.StringAppend
4603   0C67                                    .ENDBLOCK 210
4604   0C67            NoisePlayer._L0300:
4605   0C67                                    .LINE     211
4606   0C67       811D                         LDD       _ACCA, Y+005h
4607   0C68       2311                         TST       _ACCA
4608   0C6C                                    .BRANCH   4,NoisePlayer._L0304
4609   0C69       F411                         BRNE      NoisePlayer._L0304
4610   0C6F                                    .BRANCH   20,NoisePlayer._L0302
4611   0C6A   940C0C6F                         JMP       NoisePlayer._L0302
4612   0C6C            NoisePlayer._L0304:
4613   0C6C                                    .BLOCK    211
4614   0C6C                                    .LINE     212
4615   0C6C       EF1F                         LDI       _ACCA, 0FFh
4616   0C6D   9310015B                         STS       NOISEPLAYER.PARAMALPHA, _ACCA
4617   0C6F                                    .ENDBLOCK 213
4618   0C6F            NoisePlayer._L0302:
4619   0C6F            NoisePlayer._L0303:
4620   0C6F                                    .ENDBLOCK 215
4621   0C77                                    .BRANCH   20,NoisePlayer._L0295
4622   0C6F   940C0C77                         JMP       NoisePlayer._L0295
4623   0C71            NoisePlayer._L0294:
4624   0C71                                    .BLOCK    215
4625   0C71                                    .LINE     215
4626   0C71       2D18                         MOV       _ACCA, NoisePlayer.i
4627   0C72   93100186                         STS       NOISEPLAYER.PARSEPTR, _ACCA
4628   0C74                                    .LINE     216
4629   0C74       811B                         LDD       _ACCA, Y+003h
4630   0C82                                    .BRANCH   20,NoisePlayer.ParseExtract_X
4631   0C75   940C0C82                         JMP       NoisePlayer.ParseExtract_X
4632   0C77                                    .ENDBLOCK 217
4633   0C77            NoisePlayer._L0295:
4634   0C77                                    .ENDBLOCK 218
4635   0C77            NoisePlayer._L0291:
4636   0C77                                    .ENDBLOCK 219
4637   0C77            NoisePlayer._L0284:
4638   0C77                                    .LINE     219
4639   0C77       81E9                         LDD       _ACCCLO, Y+001h
4640   0C78       81FA                         LDD       _ACCCHI, Y+002h
4641   0C79       8110                         LD        _ACCA, Z
4642   0C7A       9513                         INC       _ACCA
4643   0C7B       8310                         ST        Z, _ACCA
4644   0C7C       2311                         TST       _ACCA
4645   0C80                                    .BRANCH   3,NoisePlayer._L0285
4646   0C7D       F011                         BREQ      NoisePlayer._L0285
4647   0C12                                    .BRANCH   20,NoisePlayer._L0286
4648   0C7E   940C0C12                         JMP       NoisePlayer._L0286
4649   0C80            NoisePlayer._L0285:
4650   0C80       9623                         ADIW      _FRAMEPTR, 3
4651   0C81                                    .FRAME  0
4652   0C81                                    .ENDLOOP
4653   0C81                                    .ENDBLOCK 220
4654   0C81            NoisePlayer._L0271:
4655   0C81                                    .LINE     221
4656   0C81       8118                         LDD       _ACCA, Y+000h
4657   0C82                                    .ENDBLOCK 222
4658   0C82            NoisePlayer.ParseExtract_X:
4659   0C82                                    .LINE     222
4660   0000                                    .BRANCH   19
4661   0C82       9508                         RET
4662   0C83                                    .ENDFUNC  222
4663   0C83            
4664   0C83                                    .FUNC     ParamStr2Param, 000E0h, 00020h
4665   0C83            NoisePlayer.ParamStr2Param:
4666   0C83                                    .RETURNS   0
4667   0C83       9721                         SBIW      _FRAMEPTR, 1
4668   0C84                                    .BLOCK    226
4669   0C84                                    .LINE     227
4670   0C84       E8EC                         LDI       _ACCCLO, NoisePlayer.ParamStr AND 0FFh
4671   0C85       E0F1                         LDI       _ACCCHI, NoisePlayer.ParamStr SHRB 8
4672   0C86       EB1F                         LDI       _ACCA, 0FEH ROLB _EEPROM
4673   0C87       2241                         AND       Flags, _ACCA
4674   0C88       94E8                         CLT
4675   0C89       F841                         BLD       Flags, _ERRFLAG
4676   0C8A       E000                         LDI       _ACCB, 000h
4677   0C8B   940E1355                         CALL      SYSTEM.Str2Int
4678   0C8D   9300015C                         STS       NOISEPLAYER.PARAMLONG, _ACCB
4679   0C8F   9310015D                         STS       NOISEPLAYER.PARAMLONG+1, _ACCA
4680   0C91   9320015E                         STS       NOISEPLAYER.PARAMLONG+2, _ACCALO
4681   0C93   9330015F                         STS       NOISEPLAYER.PARAMLONG+3, _ACCAHI
4682   0C95                                    .LINE     228
4683   0C95   9100015C                         LDS       _ACCB, NoisePlayer.ParamLong
4684   0C97   9110015D                         LDS       _ACCA, NoisePlayer.ParamLong+1
4685   0C99   9120015E                         LDS       _ACCALO, NoisePlayer.ParamLong+2
4686   0C9B   9130015F                         LDS       _ACCAHI, NoisePlayer.ParamLong+3
4687   0C9D   93000159                         STS       NOISEPLAYER.PARAMINT, _ACCB
4688   0C9F   9310015A                         STS       NOISEPLAYER.PARAMINT+1, _ACCA
4689   0CA1                                    .LINE     229
4690   0CA1   91000159                         LDS       _ACCB, NoisePlayer.ParamInt
4691   0CA3   9110015A                         LDS       _ACCA, NoisePlayer.ParamInt+1
4692   0CA5       2F10                         MOV       _ACCA, _ACCB
4693   0CA6   93100162                         STS       NOISEPLAYER.PARAMBYTE, _ACCA
4694   0CA8                                    .ENDBLOCK 230
4695   0CA8            NoisePlayer.ParamStr2Param_X:
4696   0CA8                                    .LINE     230
4697   0000                                    .BRANCH   19
4698   0CA8       9508                         RET
4699   0CA9                                    .ENDFUNC  230
4700   0CA9            
4701   0CA9                                    .FUNC     ParseSubCh, 000E9h, 00020h
4702   0CA9            NoisePlayer.ParseSubCh:
4703   0CA9                                    .RETURNS   0
4704   0CA9       972C                         SBIW      _FRAMEPTR, 12
4705   0CAA                                    .BLOCK    244
4706   0CAA                                    .LINE     245
4707   0CAA       E6E5                         LDI       _ACCCLO, NoisePlayer.SerInpStr AND 0FFh
4708   0CAB       E0F1                         LDI       _ACCCHI, NoisePlayer.SerInpStr SHRB 8
4709   0CAC       93EF                         PUSH      _ACCCLO
4710   0CAD       93FF                         PUSH      _ACCCHI
4711   0CAE       E3E3                         LDI       _ACCCLO, $St_String11 AND 0FFh
4712   0CAF       E3F0                         LDI       _ACCCHI, $St_String11 SHRB 8
4713   0CB0       91BF                         POP       _ACCBHI
4714   0CB1       91AF                         POP       _ACCBLO
4715   0CB2       9468                         SET
4716   0CB3       F844                         BLD       Flags, _STRCONST
4717   0CB4   940E16DB                         CALL      SYSTEM.StringComp
4718   0CB6       E010                         LDI       _ACCA, 0h
4719   0CB7       F409                         BRNE      NoisePlayer._L0305
4720   0CB8       EF1F                         SER       _ACCA
4721   0CB9            NoisePlayer._L0305:
4722   0CB9       2311                         TST       _ACCA
4723   0CBD                                    .BRANCH   4,NoisePlayer._L0308
4724   0CBA       F411                         BRNE      NoisePlayer._L0308
4725   0CC7                                    .BRANCH   20,NoisePlayer._L0306
4726   0CBB   940C0CC7                         JMP       NoisePlayer._L0306
4727   0CBD            NoisePlayer._L0308:
4728   0CBD                                    .BLOCK    245
4729   0CBD                                    .LINE     246
4730   0CBD       93CF                         PUSH      _FRAMEPTR
4731   0CBE       93DF                         PUSH      _FPTRHI
4732   0CBF       E010                         LDI       _ACCA, 000h
4733   0CC0       931A                         ST        -Y, _ACCA
4734   0CC1                                    .FRAME  1
4735   0CC1                                    .FRAME  0
4736   022B                                    .BRANCH   17,NoisePlayer.SERPROMPT
4737   0CC1   940E022B                         CALL      NoisePlayer.SERPROMPT
4738   0CC3       91DF                         POP       _FPTRHI
4739   0CC4       91CF                         POP       _FRAMEPTR
4740   0CC5            
4741   0CC5                                    .LINE     247
4742   0E8A                                    .BRANCH   20,NoisePlayer.ParseSubCh_X
4743   0CC5   940C0E8A                         JMP       NoisePlayer.ParseSubCh_X
4744   0CC7                                    .ENDBLOCK 248
4745   0CC7            NoisePlayer._L0306:
4746   0CC7            NoisePlayer._L0307:
4747   0CC7                                    .LINE     249
4748   0CC7       E211                         LDI       _ACCA, 021h
4749   0CC8       931F                         PUSH      _ACCA
4750   0CC9       E6E5                         LDI       _ACCCLO, NoisePlayer.SerInpStr AND 0FFh
4751   0CCA       E0F1                         LDI       _ACCCHI, NoisePlayer.SerInpStr SHRB 8
4752   0CCB       93EF                         PUSH      _ACCCLO
4753   0CCC       93FF                         PUSH      _ACCCHI
4754   0CCD       E061                         LDI       _ACCELO, 001h
4755   0CCE       91FF                         POP       _ACCCHI
4756   0CCF       91EF                         POP       _ACCCLO
4757   0CD0       910F                         POP       _ACCB
4758   0CD1   940E1400                         CALL      SYSTEM.PosChInVarStr
4759   0CD3       3010                         CPI       _ACCA, 000h
4760   0CD4       E010                         LDI       _ACCA, 0h
4761   0CD5       F011                         BREQ      NoisePlayer._L0309
4762   0CD6       F008                         BRLO      NoisePlayer._L0309
4763   0CD7       EF1F                         SER       _ACCA
4764   0CD8            NoisePlayer._L0309:
4765   0CD8   93100158                         STS       NOISEPLAYER.VERBOSE, _ACCA
4766   0CDA                                    .LINE     250
4767   0CDA       E31A                         LDI       _ACCA, 03Ah
4768   0CDB       931F                         PUSH      _ACCA
4769   0CDC       E6E5                         LDI       _ACCCLO, NoisePlayer.SerInpStr AND 0FFh
4770   0CDD       E0F1                         LDI       _ACCCHI, NoisePlayer.SerInpStr SHRB 8
4771   0CDE       93EF                         PUSH      _ACCCLO
4772   0CDF       93FF                         PUSH      _ACCCHI
4773   0CE0       E061                         LDI       _ACCELO, 001h
4774   0CE1       91FF                         POP       _ACCCHI
4775   0CE2       91EF                         POP       _ACCCLO
4776   0CE3       910F                         POP       _ACCB
4777   0CE4   940E1400                         CALL      SYSTEM.PosChInVarStr
4778   0CE6       3010                         CPI       _ACCA, 000h
4779   0CE7       E010                         LDI       _ACCA, 0h
4780   0CE8       F011                         BREQ      NoisePlayer._L0310
4781   0CE9       F008                         BRLO      NoisePlayer._L0310
4782   0CEA       EF1F                         SER       _ACCA
4783   0CEB            NoisePlayer._L0310:
4784   0CEB       831C                         STD       Y+004h, _ACCA
4785   0CEC                                    .LINE     251
4786   0CEC       E31D                         LDI       _ACCA, 03Dh
4787   0CED       931F                         PUSH      _ACCA
4788   0CEE       E6E5                         LDI       _ACCCLO, NoisePlayer.SerInpStr AND 0FFh
4789   0CEF       E0F1                         LDI       _ACCCHI, NoisePlayer.SerInpStr SHRB 8
4790   0CF0       93EF                         PUSH      _ACCCLO
4791   0CF1       93FF                         PUSH      _ACCCHI
4792   0CF2       E061                         LDI       _ACCELO, 001h
4793   0CF3       91FF                         POP       _ACCCHI
4794   0CF4       91EF                         POP       _ACCCLO
4795   0CF5       910F                         POP       _ACCB
4796   0CF6   940E1400                         CALL      SYSTEM.PosChInVarStr
4797   0CF8       871B                         STD       Y+00Bh, _ACCA
4798   0CF9                                    .LINE     252
4799   0CF9       851B                         LDD       _ACCA, Y+00Bh
4800   0CFA       3010                         CPI       _ACCA, 000h
4801   0CFB       E010                         LDI       _ACCA, 0h
4802   0CFC       F409                         BRNE      NoisePlayer._L0311
4803   0CFD       EF1F                         SER       _ACCA
4804   0CFE            NoisePlayer._L0311:
4805   0CFE       8318                         STD       Y+000h, _ACCA
4806   0CFF                                    .LINE     253
4807   0CFF       E6E5                         LDI       _ACCCLO, NoisePlayer.SerInpStr AND 0FFh
4808   0D00       E0F1                         LDI       _ACCCHI, NoisePlayer.SerInpStr SHRB 8
4809   0D01       9631                         ADIW      _ACCCLO, 00001h
4810   0D02       9111                         LD        _ACCA, Z+
4811   0D03       831D                         STD       Y+005h, _ACCA
4812   0D04                                    .LINE     254
4813   0D04       811D                         LDD       _ACCA, Y+005h
4814   0D05       321A                         CPI       _ACCA, 02Ah
4815   0D06       E010                         LDI       _ACCA, 0h
4816   0D07       F409                         BRNE      NoisePlayer._L0312
4817   0D08       EF1F                         SER       _ACCA
4818   0D09            NoisePlayer._L0312:
4819   0D09       8319                         STD       Y+001h, _ACCA
4820   0D0A                                    .LINE     255
4821   0D0A       811D                         LDD       _ACCA, Y+005h
4822   0D0B       3213                         CPI       _ACCA, 023h
4823   0D0C       E010                         LDI       _ACCA, 0h
4824   0D0D       F409                         BRNE      NoisePlayer._L0313
4825   0D0E       EF1F                         SER       _ACCA
4826   0D0F            NoisePlayer._L0313:
4827   0D0F       831A                         STD       Y+002h, _ACCA
4828   0D10                                    .LINE     256
4829   0D10       E011                         LDI       _ACCA, 001h
4830   0D11   93100186                         STS       NOISEPLAYER.PARSEPTR, _ACCA
4831   0D13                                    .LINE     257
4832   0D13       811A                         LDD       _ACCA, Y+002h
4833   0D14       2311                         TST       _ACCA
4834   0D18                                    .BRANCH   4,NoisePlayer._L0316
4835   0D15       F411                         BRNE      NoisePlayer._L0316
4836   0D1B                                    .BRANCH   20,NoisePlayer._L0314
4837   0D16   940C0D1B                         JMP       NoisePlayer._L0314
4838   0D18            NoisePlayer._L0316:
4839   0D18                                    .BLOCK    257
4840   0D18                                    .LINE     258
4841   0D18       E012                         LDI       _ACCA, 002h
4842   0D19   93100186                         STS       NOISEPLAYER.PARSEPTR, _ACCA
4843   0D1B                                    .ENDBLOCK 259
4844   0D1B            NoisePlayer._L0314:
4845   0D1B            NoisePlayer._L0315:
4846   0D1B                                    .LINE     260
4847   0D1B       811C                         LDD       _ACCA, Y+004h
4848   0D1C       2311                         TST       _ACCA
4849   0D20                                    .BRANCH   4,NoisePlayer._L0319
4850   0D1D       F411                         BRNE      NoisePlayer._L0319
4851   0D42                                    .BRANCH   20,NoisePlayer._L0317
4852   0D1E   940C0D42                         JMP       NoisePlayer._L0317
4853   0D20            NoisePlayer._L0319:
4854   0D20                                    .BLOCK    260
4855   0D20                                    .LINE     261
4856   0D20       93CF                         PUSH      _FRAMEPTR
4857   0D21       93DF                         PUSH      _FPTRHI
4858   0D22       E010                         LDI       _ACCA, 000h
4859   0D23       931A                         ST        -Y, _ACCA
4860   0D24                                    .FRAME  1
4861   0D24                                    .FRAME  0
4862   0B5A                                    .BRANCH   17,NoisePlayer.PARSEEXTRACT
4863   0D24   940E0B5A                         CALL       NoisePlayer.PARSEEXTRACT
4864   0D26       91DF                         POP       _FPTRHI
4865   0D27       91CF                         POP       _FRAMEPTR
4866   0D28            
4867   0D28                                    .LINE     262
4868   0D28   91100186                         LDS       _ACCA, NoisePlayer.ParsePtr
4869   0D2A       9513                         INC       _ACCA
4870   0D2B   93100186                         STS       NoisePlayer.ParsePtr, _ACCA
4871   0D2D                                    .LINE     263
4872   0D2D       8119                         LDD       _ACCA, Y+001h
4873   0D2E       2311                         TST       _ACCA
4874   0D32                                    .BRANCH   4,NoisePlayer._L0322
4875   0D2F       F411                         BRNE      NoisePlayer._L0322
4876   0D36                                    .BRANCH   20,NoisePlayer._L0320
4877   0D30   940C0D36                         JMP       NoisePlayer._L0320
4878   0D32            NoisePlayer._L0322:
4879   0D32                                    .BLOCK    264
4880   0D32                                    .LINE     264
4881   021A                                    .BRANCH   17,NoisePlayer.WRITESERINP
4882   0D32   940E021A                         CALL      NoisePlayer.WRITESERINP
4883   0D34            
4884   0D34                                    .ENDBLOCK 265
4885   0D42                                    .BRANCH   20,NoisePlayer._L0321
4886   0D34   940C0D42                         JMP       NoisePlayer._L0321
4887   0D36            NoisePlayer._L0320:
4888   0D36                                    .BLOCK    265
4889   0D36                                    .LINE     266
4890   0D36       E8EC                         LDI       _ACCCLO, NoisePlayer.ParamStr AND 0FFh
4891   0D37       E0F1                         LDI       _ACCCHI, NoisePlayer.ParamStr SHRB 8
4892   0D38       EB1F                         LDI       _ACCA, 0FEH ROLB _EEPROM
4893   0D39       2241                         AND       Flags, _ACCA
4894   0D3A       94E8                         CLT
4895   0D3B       F841                         BLD       Flags, _ERRFLAG
4896   0D3C       E000                         LDI       _ACCB, 000h
4897   0D3D   940E1355                         CALL      SYSTEM.Str2Int
4898   0D3F       2F10                         MOV       _ACCA, _ACCB
4899   0D40   93100156                         STS       NOISEPLAYER.CURRENTCH, _ACCA
4900   0D42                                    .ENDBLOCK 267
4901   0D42            NoisePlayer._L0321:
4902   0D42                                    .ENDBLOCK 268
4903   0D42            NoisePlayer._L0317:
4904   0D42            NoisePlayer._L0318:
4905   0D42                                    .LINE     269
4906   0D42       8119                         LDD       _ACCA, Y+001h
4907   0D43       9510                         COM       _ACCA
4908   0D44       931F                         PUSH      _ACCA
4909   0D45   91100156                         LDS       _ACCA, NoisePlayer.CurrentCh
4910   0D47       931F                         PUSH      _ACCA
4911   0D48   91100164                         LDS       _ACCA, NoisePlayer.MainCh
4912   0D4A       910F                         POP       _ACCB
4913   0D4B       1701                         CP        _ACCB, _ACCA
4914   0D4C       E010                         LDI       _ACCA, 0h
4915   0D4D       F009                         BREQ      NoisePlayer._L0323
4916   0D4E       EF1F                         SER       _ACCA
4917   0D4F            NoisePlayer._L0323:
4918   0D4F       910F                         POP       _ACCB
4919   0D50       2310                         AND       _ACCA, _ACCB
4920   0D51       931F                         PUSH      _ACCA
4921   0D52       811C                         LDD       _ACCA, Y+004h
4922   0D53       910F                         POP       _ACCB
4923   0D54       2310                         AND       _ACCA, _ACCB
4924   0D55       2311                         TST       _ACCA
4925   0D59                                    .BRANCH   4,NoisePlayer._L0326
4926   0D56       F411                         BRNE      NoisePlayer._L0326
4927   0D5D                                    .BRANCH   20,NoisePlayer._L0324
4928   0D57   940C0D5D                         JMP       NoisePlayer._L0324
4929   0D59            NoisePlayer._L0326:
4930   0D59                                    .BLOCK    270
4931   0D59                                    .LINE     270
4932   021A                                    .BRANCH   17,NoisePlayer.WRITESERINP
4933   0D59   940E021A                         CALL      NoisePlayer.WRITESERINP
4934   0D5B            
4935   0D5B                                    .LINE     271
4936   0E8A                                    .BRANCH   20,NoisePlayer.ParseSubCh_X
4937   0D5B   940C0E8A                         JMP       NoisePlayer.ParseSubCh_X
4938   0D5D                                    .ENDBLOCK 272
4939   0D5D            NoisePlayer._L0324:
4940   0D5D            NoisePlayer._L0325:
4941   0D5D                                    .LINE     276
4942   0D5D       E214                         LDI       _ACCA, 024h
4943   0D5E       931F                         PUSH      _ACCA
4944   0D5F       E6E5                         LDI       _ACCCLO, NoisePlayer.SerInpStr AND 0FFh
4945   0D60       E0F1                         LDI       _ACCCHI, NoisePlayer.SerInpStr SHRB 8
4946   0D61       93EF                         PUSH      _ACCCLO
4947   0D62       93FF                         PUSH      _ACCCHI
4948   0D63       E061                         LDI       _ACCELO, 001h
4949   0D64       91FF                         POP       _ACCCHI
4950   0D65       91EF                         POP       _ACCCLO
4951   0D66       910F                         POP       _ACCB
4952   0D67   940E1400                         CALL      SYSTEM.PosChInVarStr
4953   0D69       871A                         STD       Y+00Ah, _ACCA
4954   0D6A                                    .LINE     277
4955   0D6A       851A                         LDD       _ACCA, Y+00Ah
4956   0D6B       3010                         CPI       _ACCA, 000h
4957   0D6C       E010                         LDI       _ACCA, 0h
4958   0D6D       F011                         BREQ      NoisePlayer._L0327
4959   0D6E       F008                         BRLO      NoisePlayer._L0327
4960   0D6F       EF1F                         SER       _ACCA
4961   0D70            NoisePlayer._L0327:
4962   0D70       831B                         STD       Y+003h, _ACCA
4963   0D71                                    .LINE     279
4964   0D71       811B                         LDD       _ACCA, Y+003h
4965   0D72       2311                         TST       _ACCA
4966   0D76                                    .BRANCH   4,NoisePlayer._L0330
4967   0D73       F411                         BRNE      NoisePlayer._L0330
4968   0DED                                    .BRANCH   20,NoisePlayer._L0328
4969   0D74   940C0DED                         JMP       NoisePlayer._L0328
4970   0D76            NoisePlayer._L0330:
4971   0D76                                    .BLOCK    279
4972   0D76                                    .LINE     280
4973   0D76       E8EC                         LDI       _ACCCLO, NoisePlayer.ParamStr AND 0FFh
4974   0D77       E0F1                         LDI       _ACCCHI, NoisePlayer.ParamStr SHRB 8
4975   0D78       93EF                         PUSH      _ACCCLO
4976   0D79       93FF                         PUSH      _ACCCHI
4977   0D7A       9631                         ADIW      _ACCCLO, 1
4978   0D7B       93FA                         ST        -Y, _ACCCHI
4979   0D7C       93EA                         ST        -Y, _ACCCLO
4980   0D7D       E218                         LDI       _ACCA, 028h
4981   0D7E       931A                         ST        -Y, _ACCA
4982   0D7F       EF17                         LDI       _ACCA, 0FEH ROLB _DEVICE
4983   0D80       2241                         AND       Flags, _ACCA
4984   0D81       EB1F                         LDI       _ACCA, 0FEH ROLB _EEPROM
4985   0D82       2241                         AND       Flags, _ACCA
4986   0D83                                    .FRAME  3
4987   0D83       E6E5                         LDI       _ACCCLO, NoisePlayer.SerInpStr AND 0FFh
4988   0D84       E0F1                         LDI       _ACCCHI, NoisePlayer.SerInpStr SHRB 8
4989   0D85       93EF                         PUSH      _ACCCLO
4990   0D86       93FF                         PUSH      _ACCCHI
4991   0D87       851D                         LDD       _ACCA, Y+00Dh
4992   0D88       5F1F                         SUBI      _ACCA, -001h AND 0FFh
4993   0D89       931F                         PUSH      _ACCA
4994   0D8A       E012                         LDI       _ACCA, 002h
4995   0D8B       910F                         POP       _ACCB
4996   0D8C       91FF                         POP       _ACCCHI
4997   0D8D       91EF                         POP       _ACCCLO
4998   0D8E   940E1425                         CALL      SYSTEM.StrCopyV
4999   0D90       E218                         LDI       _ACCA, 028h
5000   0D91       931F                         PUSH      _ACCA
5001   0D92       8118                         LDD       _ACCA, Y+000h
5002   0D93       910F                         POP       _ACCB
5003   0D94       1B01                         SUB       _ACCB, _ACCA
5004   0D95       2F10                         MOV       _ACCA, _ACCB
5005   0D96       91FF                         POP       _ACCCHI
5006   0D97       91EF                         POP       _ACCCLO
5007   0D98       8310                         ST        Z, _ACCA
5008   0D99       9623                         ADIW      _FRAMEPTR, 3
5009   0D9A                                    .FRAME  0
5010   0D9A                                    .LINE     281
5011   0D9A       E8EC                         LDI       _ACCCLO, NoisePlayer.ParamStr AND 0FFh
5012   0D9B       E0F1                         LDI       _ACCCHI, NoisePlayer.ParamStr SHRB 8
5013   0D9C       EB1F                         LDI       _ACCA, 0FEH ROLB _EEPROM
5014   0D9D       2241                         AND       Flags, _ACCA
5015   0D9E       94E8                         CLT
5016   0D9F       F841                         BLD       Flags, _ERRFLAG
5017   0DA0       EF0F                         LDI       _ACCB, 0FFh
5018   0DA1   940E1355                         CALL      SYSTEM.Str2Int
5019   0DA3       2F10                         MOV       _ACCA, _ACCB
5020   0DA4       8718                         STD       Y+008h, _ACCA
5021   0DA5                                    .LINE     282
5022   0DA5       E010                         LDI       _ACCA, 000h
5023   0DA6       8719                         STD       Y+009h, _ACCA
5024   0DA7                                    .LINE     283
5025   0DA7                                    .LOOP
5026   0DA7       E0E8                         LDI       _ACCCLO, NoisePlayer.i AND 0FFh
5027   0DA8       E0F0                         LDI       _ACCCHI, NoisePlayer.i SHRB 8
5028   0DA9       93FA                         ST        -Y, _ACCCHI
5029   0DAA       93EA                         ST        -Y, _ACCCLO
5030   0DAB                                    .FRAME  2
5031   0DAB       E011                         LDI       _ACCA, 001h
5032   0DAC       8310                         ST        Z, _ACCA
5033   0DAD       93EF                         PUSH      _ACCCLO
5034   0DAE       93FF                         PUSH      _ACCCHI
5035   0DAF       851C                         LDD       _ACCA, Y+00Ch
5036   0DB0       5011                         SUBI      _ACCA, 001h AND 0FFh
5037   0DB1       91FF                         POP       _ACCCHI
5038   0DB2       91EF                         POP       _ACCCLO
5039   0DB3       931A                         ST        -Y, _ACCA
5040   0DB4                                    .FRAME  3
5041   0DB4       8110                         LD        _ACCA, Z
5042   0DB5            NoisePlayer._L0333:
5043   0DB5       8108                         LDD       _ACCB, Y+000h
5044   0DB6       1701                         CP        _ACCB, _ACCA
5045   0DB7       EF1F                         LDI       _ACCA, 0FFh
5046   0DB8       F008                         BRLO      NoisePlayer._L0334
5047   0DB9       2711                         CLR       _ACCA
5048   0DBA            NoisePlayer._L0334:
5049   0DBA       2311                         TST       _ACCA
5050   0DBE                                    .BRANCH   3,NoisePlayer._L0335
5051   0DBB       F011                         BREQ      NoisePlayer._L0335
5052   0DD6                                    .BRANCH   20,NoisePlayer._L0332
5053   0DBC   940C0DD6                         JMP       NoisePlayer._L0332
5054   0DBE            NoisePlayer._L0335:
5055   0DBE                                    .BLOCK    284
5056   0DBE                                    .LINE     284
5057   0DBE       E6E5                         LDI       _ACCCLO, NoisePlayer.SerInpStr AND 0FFh
5058   0DBF       E0F1                         LDI       _ACCCHI, NoisePlayer.SerInpStr SHRB 8
5059   0DC0       2D18                         MOV       _ACCA, NoisePlayer.i
5060   0DC1       2F01                         MOV       _ACCB, _ACCA
5061   0DC2       2711                         CLR       _ACCA
5062   0DC3       0FE0                         ADD       _ACCCLO, _ACCB
5063   0DC4       1FF1                         ADC       _ACCCHI, _ACCA
5064   0DC5       9111                         LD        _ACCA, Z+
5065   0DC6       8718                         STD       Y+008h, _ACCA
5066   0DC7                                    .LINE     285
5067   0DC7       851C                         LDD       _ACCA, Y+00Ch
5068   0DC8       931F                         PUSH      _ACCA
5069   0DC9       8518                         LDD       _ACCA, Y+008h
5070   0DCA       910F                         POP       _ACCB
5071   0DCB       2710                         EOR       _ACCA, _ACCB
5072   0DCC       871C                         STD       Y+00Ch, _ACCA
5073   0DCD                                    .ENDBLOCK 286
5074   0DCD            NoisePlayer._L0331:
5075   0DCD                                    .LINE     286
5076   0DCD       81E9                         LDD       _ACCCLO, Y+001h
5077   0DCE       81FA                         LDD       _ACCCHI, Y+002h
5078   0DCF       8110                         LD        _ACCA, Z
5079   0DD0       9513                         INC       _ACCA
5080   0DD1       8310                         ST        Z, _ACCA
5081   0DD2       2311                         TST       _ACCA
5082   0DD6                                    .BRANCH   3,NoisePlayer._L0332
5083   0DD3       F011                         BREQ      NoisePlayer._L0332
5084   0DB5                                    .BRANCH   20,NoisePlayer._L0333
5085   0DD4   940C0DB5                         JMP       NoisePlayer._L0333
5086   0DD6            NoisePlayer._L0332:
5087   0DD6       9623                         ADIW      _FRAMEPTR, 3
5088   0DD7                                    .FRAME  0
5089   0DD7                                    .ENDLOOP
5090   0DD7                                    .LINE     287
5091   0DD7       8519                         LDD       _ACCA, Y+009h
5092   0DD8       931F                         PUSH      _ACCA
5093   0DD9       8518                         LDD       _ACCA, Y+008h
5094   0DDA       910F                         POP       _ACCB
5095   0DDB       1701                         CP        _ACCB, _ACCA
5096   0DDC       E010                         LDI       _ACCA, 0h
5097   0DDD       F009                         BREQ      NoisePlayer._L0336
5098   0DDE       EF1F                         SER       _ACCA
5099   0DDF            NoisePlayer._L0336:
5100   0DDF       2311                         TST       _ACCA
5101   0DE3                                    .BRANCH   4,NoisePlayer._L0339
5102   0DE0       F411                         BRNE      NoisePlayer._L0339
5103   0DED                                    .BRANCH   20,NoisePlayer._L0337
5104   0DE1   940C0DED                         JMP       NoisePlayer._L0337
5105   0DE3            NoisePlayer._L0339:
5106   0DE3                                    .BLOCK    287
5107   0DE3                                    .LINE     288
5108   0DE3       93CF                         PUSH      _FRAMEPTR
5109   0DE4       93DF                         PUSH      _FPTRHI
5110   0DE5       E017                         LDI       _ACCA, 007h
5111   0DE6       931A                         ST        -Y, _ACCA
5112   0DE7                                    .FRAME  1
5113   0DE7                                    .FRAME  0
5114   022B                                    .BRANCH   17,NoisePlayer.SERPROMPT
5115   0DE7   940E022B                         CALL      NoisePlayer.SERPROMPT
5116   0DE9       91DF                         POP       _FPTRHI
5117   0DEA       91CF                         POP       _FRAMEPTR
5118   0DEB            
5119   0DEB                                    .LINE     289
5120   0E8A                                    .BRANCH   20,NoisePlayer.ParseSubCh_X
5121   0DEB   940C0E8A                         JMP       NoisePlayer.ParseSubCh_X
5122   0DED                                    .ENDBLOCK 290
5123   0DED            NoisePlayer._L0337:
5124   0DED            NoisePlayer._L0338:
5125   0DED                                    .ENDBLOCK 291
5126   0DED            NoisePlayer._L0328:
5127   0DED            NoisePlayer._L0329:
5128   0DED                                    .LINE     295
5129   0DED       93CF                         PUSH      _FRAMEPTR
5130   0DEE       93DF                         PUSH      _FPTRHI
5131   0DEF       E010                         LDI       _ACCA, 000h
5132   0DF0       931A                         ST        -Y, _ACCA
5133   0DF1                                    .FRAME  1
5134   0DF1                                    .FRAME  0
5135   0B5A                                    .BRANCH   17,NoisePlayer.PARSEEXTRACT
5136   0DF1   940E0B5A                         CALL       NoisePlayer.PARSEEXTRACT
5137   0DF3       91DF                         POP       _FPTRHI
5138   0DF4       91CF                         POP       _FRAMEPTR
5139   0DF5            
5140   0DF5       2311                         TST       _ACCA
5141   0DF9                                    .BRANCH   4,NoisePlayer._L0342
5142   0DF6       F411                         BRNE      NoisePlayer._L0342
5143   0DFF                                    .BRANCH   20,NoisePlayer._L0340
5144   0DF7   940C0DFF                         JMP       NoisePlayer._L0340
5145   0DF9            NoisePlayer._L0342:
5146   0DF9                                    .BLOCK    295
5147   0DF9                                    .LINE     296
5148   0DF9       E010                         LDI       _ACCA, 00000h SHRB 8
5149   0DFA       E000                         LDI       _ACCB, 00000h AND 0FFh
5150   0DFB       831F                         STD       Y+007h, _ACCA
5151   0DFC       830E                         STD       Y+006h, _ACCB
5152   0DFD                                    .ENDBLOCK 297
5153   0E35                                    .BRANCH   20,NoisePlayer._L0341
5154   0DFD   940C0E35                         JMP       NoisePlayer._L0341
5155   0DFF            NoisePlayer._L0340:
5156   0DFF                                    .BLOCK    297
5157   0DFF                                    .LINE     298
5158   0DFF       93CF                         PUSH      _FRAMEPTR
5159   0E00       93DF                         PUSH      _FPTRHI
5160   0AFB                                    .BRANCH   17,NoisePlayer.CMD2INDEX
5161   0E01   940E0AFB                         CALL       NoisePlayer.CMD2INDEX
5162   0E03       91DF                         POP       _FPTRHI
5163   0E04       91CF                         POP       _FRAMEPTR
5164   0E05            
5165   0E05   9310014F                         STS       NOISEPLAYER.CMDWHICH, _ACCA
5166   0E07                                    .LINE     299
5167   0E07   9110014F                         LDS       _ACCA, NoisePlayer.CmdWhich
5168   0E09       301F                         CPI       _ACCA, 00Fh
5169   0E0A       E010                         LDI       _ACCA, 0h
5170   0E0B       F409                         BRNE      NoisePlayer._L0343
5171   0E0C       EF1F                         SER       _ACCA
5172   0E0D            NoisePlayer._L0343:
5173   0E0D       2311                         TST       _ACCA
5174   0E11                                    .BRANCH   4,NoisePlayer._L0346
5175   0E0E       F411                         BRNE      NoisePlayer._L0346
5176   0E1B                                    .BRANCH   20,NoisePlayer._L0344
5177   0E0F   940C0E1B                         JMP       NoisePlayer._L0344
5178   0E11            NoisePlayer._L0346:
5179   0E11                                    .BLOCK    299
5180   0E11                                    .LINE     300
5181   0E11       93CF                         PUSH      _FRAMEPTR
5182   0E12       93DF                         PUSH      _FPTRHI
5183   0E13       E014                         LDI       _ACCA, 004h
5184   0E14       931A                         ST        -Y, _ACCA
5185   0E15                                    .FRAME  1
5186   0E15                                    .FRAME  0
5187   022B                                    .BRANCH   17,NoisePlayer.SERPROMPT
5188   0E15   940E022B                         CALL      NoisePlayer.SERPROMPT
5189   0E17       91DF                         POP       _FPTRHI
5190   0E18       91CF                         POP       _FRAMEPTR
5191   0E19            
5192   0E19                                    .LINE     301
5193   0E8A                                    .BRANCH   20,NoisePlayer.ParseSubCh_X
5194   0E19   940C0E8A                         JMP       NoisePlayer.ParseSubCh_X
5195   0E1B                                    .ENDBLOCK 302
5196   0E1B            NoisePlayer._L0344:
5197   0E1B            NoisePlayer._L0345:
5198   0E1B                                    .LINE     303
5199   0E1B       ECEE                         LDI       _ACCCLO, NoisePlayer.Cmd2SubChArr AND 0FFh
5200   0E1C       E3F0                         LDI       _ACCCHI, NoisePlayer.Cmd2SubChArr SHRB 8
5201   0E1D       93EF                         PUSH      _ACCCLO
5202   0E1E       93FF                         PUSH      _ACCCHI
5203   0E1F   9110014F                         LDS       _ACCA, NoisePlayer.CmdWhich
5204   0E21       2F01                         MOV       _ACCB, _ACCA
5205   0E22       2711                         CLR       _ACCA
5206   0E23       0F00                         LSL       _ACCB
5207   0E24       1F11                         ROL       _ACCA
5208   0E25       91FF                         POP       _ACCCHI
5209   0E26       91EF                         POP       _ACCCLO
5210   0E27       0FE0                         ADD       _ACCCLO, _ACCB
5211   0E28       1FF1                         ADC       _ACCCHI, _ACCA
5212   0E29       9105                         LPM       _ACCB, Z+
5213   0E2A       9114                         LPM       _ACCA, Z
5214   0E2B       831F                         STD       Y+007h, _ACCA
5215   0E2C       830E                         STD       Y+006h, _ACCB
5216   0E2D                                    .LINE     304
5217   0E2D       93CF                         PUSH      _FRAMEPTR
5218   0E2E       93DF                         PUSH      _FPTRHI
5219   0E2F       E010                         LDI       _ACCA, 000h
5220   0E30       931A                         ST        -Y, _ACCA
5221   0E31                                    .FRAME  1
5222   0E31                                    .FRAME  0
5223   0B5A                                    .BRANCH   17,NoisePlayer.PARSEEXTRACT
5224   0E31   940E0B5A                         CALL       NoisePlayer.PARSEEXTRACT
5225   0E33       91DF                         POP       _FPTRHI
5226   0E34       91CF                         POP       _FRAMEPTR
5227   0E35            
5228   0E35                                    .ENDBLOCK 305
5229   0E35            NoisePlayer._L0341:
5230   0E35                                    .LINE     306
5231   0E35       E8EC                         LDI       _ACCCLO, NoisePlayer.ParamStr AND 0FFh
5232   0E36       E0F1                         LDI       _ACCCHI, NoisePlayer.ParamStr SHRB 8
5233   0E37       EB1F                         LDI       _ACCA, 0FEH ROLB _EEPROM
5234   0E38       2241                         AND       Flags, _ACCA
5235   0E39       94E8                         CLT
5236   0E3A       F841                         BLD       Flags, _ERRFLAG
5237   0E3B       E000                         LDI       _ACCB, 000h
5238   0E3C   940E1355                         CALL      SYSTEM.Str2Int
5239   0E3E       930F                         PUSH      _ACCB
5240   0E3F       931F                         PUSH      _ACCA
5241   0E40       810E                         LDD       _ACCB, Y+006h
5242   0E41       811F                         LDD       _ACCA, Y+007h
5243   0E42       913F                         POP       _ACCAHI
5244   0E43       912F                         POP       _ACCALO
5245   0E44       0F02                         ADD       _ACCB, _ACCALO
5246   0E45       1F13                         ADC       _ACCA, _ACCAHI
5247   0E46   93000154                         STS       NOISEPLAYER.SUBCH, _ACCB
5248   0E48   93100155                         STS       NOISEPLAYER.SUBCH+1, _ACCA
5249   0E4A                                    .LINE     307
5250   0E4A       8118                         LDD       _ACCA, Y+000h
5251   0E4B       2311                         TST       _ACCA
5252   0E4F                                    .BRANCH   4,NoisePlayer._L0349
5253   0E4C       F411                         BRNE      NoisePlayer._L0349
5254   0E57                                    .BRANCH   20,NoisePlayer._L0347
5255   0E4D   940C0E57                         JMP       NoisePlayer._L0347
5256   0E4F            NoisePlayer._L0349:
5257   0E4F                                    .BLOCK    307
5258   0E4F                                    .LINE     308
5259   0E4F       93CF                         PUSH      _FRAMEPTR
5260   0E50       93DF                         PUSH      _FPTRHI
5261   06AA                                    .BRANCH   17,NoisePlayer.PARSEGETPARAM
5262   0E51   940E06AA                         CALL      NoisePlayer.PARSEGETPARAM
5263   0E53       91DF                         POP       _FPTRHI
5264   0E54       91CF                         POP       _FRAMEPTR
5265   0E55            
5266   0E55                                    .ENDBLOCK 309
5267   0E8A                                    .BRANCH   20,NoisePlayer._L0348
5268   0E55   940C0E8A                         JMP       NoisePlayer._L0348
5269   0E57            NoisePlayer._L0347:
5270   0E57                                    .BLOCK    309
5271   0E57                                    .LINE     310
5272   0E57       851B                         LDD       _ACCA, Y+00Bh
5273   0E58       5F1F                         SUBI      _ACCA, -001h AND 0FFh
5274   0E59   93100186                         STS       NOISEPLAYER.PARSEPTR, _ACCA
5275   0E5B                                    .LINE     311
5276   0E5B       93CF                         PUSH      _FRAMEPTR
5277   0E5C       93DF                         PUSH      _FPTRHI
5278   0E5D       EF1F                         LDI       _ACCA, 0FFh
5279   0E5E       931A                         ST        -Y, _ACCA
5280   0E5F                                    .FRAME  1
5281   0E5F                                    .FRAME  0
5282   0B5A                                    .BRANCH   17,NoisePlayer.PARSEEXTRACT
5283   0E5F   940E0B5A                         CALL       NoisePlayer.PARSEEXTRACT
5284   0E61       91DF                         POP       _FPTRHI
5285   0E62       91CF                         POP       _FRAMEPTR
5286   0E63            
5287   0E63       2311                         TST       _ACCA
5288   0E67                                    .BRANCH   4,NoisePlayer._L0352
5289   0E64       F411                         BRNE      NoisePlayer._L0352
5290   0E6F                                    .BRANCH   20,NoisePlayer._L0350
5291   0E65   940C0E6F                         JMP       NoisePlayer._L0350
5292   0E67            NoisePlayer._L0352:
5293   0E67                                    .BLOCK    311
5294   0E67                                    .LINE     312
5295   0E67       93CF                         PUSH      _FRAMEPTR
5296   0E68       93DF                         PUSH      _FPTRHI
5297   0C83                                    .BRANCH   17,NoisePlayer.PARAMSTR2PARAM
5298   0E69   940E0C83                         CALL      NoisePlayer.PARAMSTR2PARAM
5299   0E6B       91DF                         POP       _FPTRHI
5300   0E6C       91CF                         POP       _FRAMEPTR
5301   0E6D            
5302   0E6D                                    .ENDBLOCK 313
5303   0E84                                    .BRANCH   20,NoisePlayer._L0351
5304   0E6D   940C0E84                         JMP       NoisePlayer._L0351
5305   0E6F            NoisePlayer._L0350:
5306   0E6F                                    .BLOCK    313
5307   0E6F                                    .LINE     314
5308   0E6F       E000                         LDI       _ACCB, 000000000h AND 0FFh
5309   0E70       E010                         LDI       _ACCA, 000000000h SHRB 8
5310   0E71       E020                         LDI       _ACCALO, 000000000h SHRB 16
5311   0E72       E030                         LDI       _ACCAHI, 000000000h SHRB 24
5312   0E73   9300015C                         STS       NOISEPLAYER.PARAMLONG, _ACCB
5313   0E75   9310015D                         STS       NOISEPLAYER.PARAMLONG+1, _ACCA
5314   0E77   9320015E                         STS       NOISEPLAYER.PARAMLONG+2, _ACCALO
5315   0E79   9330015F                         STS       NOISEPLAYER.PARAMLONG+3, _ACCAHI
5316   0E7B                                    .LINE     315
5317   0E7B       E010                         LDI       _ACCA, 00000h SHRB 8
5318   0E7C       E000                         LDI       _ACCB, 00000h AND 0FFh
5319   0E7D   93000159                         STS       NOISEPLAYER.PARAMINT, _ACCB
5320   0E7F   9310015A                         STS       NOISEPLAYER.PARAMINT+1, _ACCA
5321   0E81                                    .LINE     316
5322   0E81       E010                         LDI       _ACCA, 000h
5323   0E82   93100162                         STS       NOISEPLAYER.PARAMBYTE, _ACCA
5324   0E84                                    .ENDBLOCK 317
5325   0E84            NoisePlayer._L0351:
5326   0E84                                    .LINE     318
5327   0E84       93CF                         PUSH      _FRAMEPTR
5328   0E85       93DF                         PUSH      _FPTRHI
5329   084F                                    .BRANCH   17,NoisePlayer.PARSESETPARAM
5330   0E86   940E084F                         CALL      NoisePlayer.PARSESETPARAM
5331   0E88       91DF                         POP       _FPTRHI
5332   0E89       91CF                         POP       _FRAMEPTR
5333   0E8A            
5334   0E8A                                    .ENDBLOCK 319
5335   0E8A            NoisePlayer._L0348:
5336   0E8A                                    .ENDBLOCK 320
5337   0E8A            NoisePlayer.ParseSubCh_X:
5338   0E8A                                    .LINE     320
5339   0000                                    .BRANCH   19
5340   0E8A       9508                         RET
5341   0E8B                                    .ENDFUNC  320
5342   0E8B            
5343   0E8B            
5344   0E8B                                    .FILE     E:\DROPBOX\NOISEPLAYER\AVR\NoisePlayer.pas
5345   0E8B                                    .FUNC     CheckSer, 000F7h, 00020h
5346   0E8B            NoisePlayer.CheckSer:
5347   0E8B                                    .RETURNS   0
5348   0E8B       9722                         SBIW      _FRAMEPTR, 2
5349   0E8C                                    .BLOCK    250
5350   0E8C                                    .LINE     251
5351   0E8C   940E1236                         CALL       SYSTEM.SERINP
5352   0E8E            
5353   0E8E       8319                         STD       Y+001h, _ACCA
5354   0E8F                                    .LINE     253
5355   0E8F       8119                         LDD       _ACCA, Y+001h
5356   0E90                                    .LINE     254
5357   0E90       3018                         CPI       _ACCA, 8
5358   0E94                                    .BRANCH   3,NoisePlayer._L0356
5359   0E91       F011                         BREQ      NoisePlayer._L0356
5360   0EB0                                    .BRANCH   20,NoisePlayer._L0355
5361   0E92   940C0EB0                         JMP       NoisePlayer._L0355
5362   0E94            NoisePlayer._L0356:
5363   0E94            NoisePlayer._L0354:
5364   0E94                                    .BLOCK    255
5365   0E94                                    .LINE     255
5366   0E94       E6E5                         LDI       _ACCCLO, NoisePlayer.SerInpStr AND 0FFh
5367   0E95       E0F1                         LDI       _ACCCHI, NoisePlayer.SerInpStr SHRB 8
5368   0E96       8110                         LD        _ACCA, Z
5369   0E97       3010                         CPI       _ACCA, 000h
5370   0E98       E010                         LDI       _ACCA, 0h
5371   0E99       F011                         BREQ      NoisePlayer._L0357
5372   0E9A       F008                         BRLO      NoisePlayer._L0357
5373   0E9B       EF1F                         SER       _ACCA
5374   0E9C            NoisePlayer._L0357:
5375   0E9C       2311                         TST       _ACCA
5376   0EA0                                    .BRANCH   4,NoisePlayer._L0360
5377   0E9D       F411                         BRNE      NoisePlayer._L0360
5378   0EAE                                    .BRANCH   20,NoisePlayer._L0358
5379   0E9E   940C0EAE                         JMP       NoisePlayer._L0358
5380   0EA0            NoisePlayer._L0360:
5381   0EA0                                    .BLOCK    255
5382   0EA0                                    .LINE     256
5383   0EA0       E6E5                         LDI       _ACCCLO, NoisePlayer.SerInpStr AND 0FFh
5384   0EA1       E0F1                         LDI       _ACCCHI, NoisePlayer.SerInpStr SHRB 8
5385   0EA2       93EF                         PUSH      _ACCCLO
5386   0EA3       93FF                         PUSH      _ACCCHI
5387   0EA4       E6E5                         LDI       _ACCCLO, NoisePlayer.SerInpStr AND 0FFh
5388   0EA5       E0F1                         LDI       _ACCCHI, NoisePlayer.SerInpStr SHRB 8
5389   0EA6       8110                         LD        _ACCA, Z
5390   0EA7       5011                         SUBI      _ACCA, 001h AND 0FFh
5391   0EA8       91FF                         POP       _ACCCHI
5392   0EA9       91EF                         POP       _ACCCLO
5393   0EAA       311F                         CPI       _ACCA, 31
5394   0EAB       F008                         BRCS      NoisePlayer._L0361
5395   0EAC       E11F                         LDI       _ACCA, 31
5396   0EAD            NoisePlayer._L0361:
5397   0EAD       9311                         ST        Z+, _ACCA
5398   0EAE                                    .ENDBLOCK 257
5399   0EAE            NoisePlayer._L0358:
5400   0EAE            NoisePlayer._L0359:
5401   0EAE                                    .ENDBLOCK 258
5402   0EF1                                    .BRANCH   20,NoisePlayer._L0353
5403   0EAE   940C0EF1                         JMP       NoisePlayer._L0353
5404   0EB0            NoisePlayer._L0355:
5405   0EB0                                    .LINE     259
5406   0EB0       301D                         CPI       _ACCA, 13
5407   0EB4                                    .BRANCH   3,NoisePlayer._L0364
5408   0EB1       F011                         BREQ      NoisePlayer._L0364
5409   0ED6                                    .BRANCH   20,NoisePlayer._L0363
5410   0EB2   940C0ED6                         JMP       NoisePlayer._L0363
5411   0EB4            NoisePlayer._L0364:
5412   0EB4            NoisePlayer._L0362:
5413   0EB4                                    .BLOCK    260
5414   0EB4                                    .LINE     260
5415   0EB4       E010                         LDI       _ACCA, 000h
5416   0EB5   93100163                         STS       NOISEPLAYER.BINARYMODE, _ACCA
5417   0EB7                                    .LINE     261
5418   0EB7       93CF                         PUSH      _FRAMEPTR
5419   0EB8       93DF                         PUSH      _FPTRHI
5420   0CA9                                    .BRANCH   17,NoisePlayer.PARSESUBCH
5421   0EB9   940E0CA9                         CALL      NoisePlayer.PARSESUBCH
5422   0EBB       91DF                         POP       _FPTRHI
5423   0EBC       91CF                         POP       _FRAMEPTR
5424   0EBD            
5425   0EBD                                    .LINE     262
5426   0EBD       E6E5                         LDI       _ACCCLO, NoisePlayer.SerInpStr AND 0FFh
5427   0EBE       E0F1                         LDI       _ACCCHI, NoisePlayer.SerInpStr SHRB 8
5428   0EBF       93EF                         PUSH      _ACCCLO
5429   0EC0       93FF                         PUSH      _ACCCHI
5430   0EC1       9631                         ADIW      _ACCCLO, 1
5431   0EC2       93FA                         ST        -Y, _ACCCHI
5432   0EC3       93EA                         ST        -Y, _ACCCLO
5433   0EC4       E11F                         LDI       _ACCA, 01Fh
5434   0EC5       931A                         ST        -Y, _ACCA
5435   0EC6       EF17                         LDI       _ACCA, 0FEH ROLB _DEVICE
5436   0EC7       2241                         AND       Flags, _ACCA
5437   0EC8       EB1F                         LDI       _ACCA, 0FEH ROLB _EEPROM
5438   0EC9       2241                         AND       Flags, _ACCA
5439   0ECA                                    .FRAME  3
5440   0ECA       E11F                         LDI       _ACCA, 01Fh
5441   0ECB       931F                         PUSH      _ACCA
5442   0ECC       8118                         LDD       _ACCA, Y+000h
5443   0ECD       910F                         POP       _ACCB
5444   0ECE       1B01                         SUB       _ACCB, _ACCA
5445   0ECF       2F10                         MOV       _ACCA, _ACCB
5446   0ED0       91FF                         POP       _ACCCHI
5447   0ED1       91EF                         POP       _ACCCLO
5448   0ED2       8310                         ST        Z, _ACCA
5449   0ED3       9623                         ADIW      _FRAMEPTR, 3
5450   0ED4                                    .FRAME  0
5451   0ED4                                    .ENDBLOCK 263
5452   0EF1                                    .BRANCH   20,NoisePlayer._L0353
5453   0ED4   940C0EF1                         JMP       NoisePlayer._L0353
5454   0ED6            NoisePlayer._L0363:
5455   0ED6                                    .LINE     264
5456   0ED6       3210                         CPI       _ACCA, 32
5457   0EDA                                    .BRANCH   2,NoisePlayer._L0367
5458   0ED7       F410                         BRCC      NoisePlayer._L0367
5459   0EF1                                    .BRANCH   20,NoisePlayer._L0366
5460   0ED8   940C0EF1                         JMP       NoisePlayer._L0366
5461   0EDA            NoisePlayer._L0367:
5462   0EDA       371F                         CPI       _ACCA, 127
5463   0EDF                                    .BRANCH   3,NoisePlayer._L0368
5464   0EDB       F019                         BREQ      NoisePlayer._L0368
5465   0EF1                                    .BRANCH   1,NoisePlayer._L0366
5466   0EDC       F010                         BRCS      NoisePlayer._L0368
5467   0EF1                                    .BRANCH   20,NoisePlayer._L0366
5468   0EDD   940C0EF1                         JMP       NoisePlayer._L0366
5469   0EDF            NoisePlayer._L0368:
5470   0EDF            NoisePlayer._L0365:
5471   0EDF                                    .BLOCK    265
5472   0EDF                                    .LINE     265
5473   0EDF       8119                         LDD       _ACCA, Y+001h
5474   0EE0       2F71                         MOV       _ACCEHI, _ACCA
5475   0EE1       E061                         LDI       _ACCELO, 001h
5476   0EE2       E010                         LDI       _ACCA, _ACCELO SHRB 8
5477   0EE3       E106                         LDI       _ACCB, _ACCELO AND 0FFh
5478   0EE4       930F                         PUSH      _ACCB
5479   0EE5       931F                         PUSH      _ACCA
5480   0EE6       E6E5                         LDI       _ACCCLO, NoisePlayer.SerInpStr AND 0FFh
5481   0EE7       E0F1                         LDI       _ACCCHI, NoisePlayer.SerInpStr SHRB 8
5482   0EE8       93EF                         PUSH      _ACCCLO
5483   0EE9       93FF                         PUSH      _ACCCHI
5484   0EEA       E11F                         LDI       _ACCA, 01Fh
5485   0EEB       931F                         PUSH      _ACCA
5486   0EEC       E090                         LDI       _ACCFHI, 000h
5487   0EED   940E12D6                         CALL      SYSTEM.StringAppend
5488   0EEF                                    .ENDBLOCK 266
5489   0EF1                                    .BRANCH   20,NoisePlayer._L0353
5490   0EEF   940C0EF1                         JMP       NoisePlayer._L0353
5491   0EF1            NoisePlayer._L0366:
5492   0EF1            NoisePlayer._L0353:
5493   0EF1                                    .ENDBLOCK 299
5494   0EF1            NoisePlayer.CheckSer_X:
5495   0EF1                                    .LINE     299
5496   0000                                    .BRANCH   19
5497   0EF1       9508                         RET
5498   0EF2                                    .ENDFUNC  299
5499   0EF2            
5500   0EF2                                    .FUNC     GetWaveParams, 0012Dh, 00020h
5501   0EF2            NoisePlayer.GetWaveParams:
5502   0EF2                                    .RETURNS   0
5503   0EF2                                    .BLOCK    302
5504   0EF2                                    .LINE     303
5505   0EF2       ECEC                         LDI       _ACCCLO, NoisePlayer.WaveStartArray AND 0FFh
5506   0EF3       E0F1                         LDI       _ACCCHI, NoisePlayer.WaveStartArray SHRB 8
5507   0EF4       93EF                         PUSH      _ACCCLO
5508   0EF5       93FF                         PUSH      _ACCCHI
5509   0EF6   9110014A                         LDS       _ACCA, NoisePlayer.wavesel
5510   0EF8       2F01                         MOV       _ACCB, _ACCA
5511   0EF9       2711                         CLR       _ACCA
5512   0EFA       0F00                         LSL       _ACCB
5513   0EFB       1F11                         ROL       _ACCA
5514   0EFC       0F00                         LSL       _ACCB
5515   0EFD       1F11                         ROL       _ACCA
5516   0EFE       91FF                         POP       _ACCCHI
5517   0EFF       91EF                         POP       _ACCCLO
5518   0F00       0FE0                         ADD       _ACCCLO, _ACCB
5519   0F01       1FF1                         ADC       _ACCCHI, _ACCA
5520   0F02       9101                         LD        _ACCB, Z+
5521   0F03       9111                         LD        _ACCA, Z+
5522   0F04       9121                         LD        _ACCALO, Z+
5523   0F05       9131                         LD        _ACCAHI, Z+
5524   0F06   93000187                         STS       NOISEPLAYER.DF_LONG, _ACCB
5525   0F08   93100188                         STS       NOISEPLAYER.DF_LONG+1, _ACCA
5526   0F0A   93200189                         STS       NOISEPLAYER.DF_LONG+2, _ACCALO
5527   0F0C   9330018A                         STS       NOISEPLAYER.DF_LONG+3, _ACCAHI
5528   0F0E                                    .LINE     304
5529   0F0E       EEEC                         LDI       _ACCCLO, NoisePlayer.WaveLoopArray AND 0FFh
5530   0F0F       E0F1                         LDI       _ACCCHI, NoisePlayer.WaveLoopArray SHRB 8
5531   0F10       93EF                         PUSH      _ACCCLO
5532   0F11       93FF                         PUSH      _ACCCHI
5533   0F12   9110014A                         LDS       _ACCA, NoisePlayer.wavesel
5534   0F14       2F01                         MOV       _ACCB, _ACCA
5535   0F15       2711                         CLR       _ACCA
5536   0F16       0F00                         LSL       _ACCB
5537   0F17       1F11                         ROL       _ACCA
5538   0F18       0F00                         LSL       _ACCB
5539   0F19       1F11                         ROL       _ACCA
5540   0F1A       91FF                         POP       _ACCCHI
5541   0F1B       91EF                         POP       _ACCCLO
5542   0F1C       0FE0                         ADD       _ACCCLO, _ACCB
5543   0F1D       1FF1                         ADC       _ACCCHI, _ACCA
5544   0F1E       9101                         LD        _ACCB, Z+
5545   0F1F       9111                         LD        _ACCA, Z+
5546   0F20       9121                         LD        _ACCALO, Z+
5547   0F21       9131                         LD        _ACCAHI, Z+
5548   0F22   930001C8                         STS       NOISEPLAYER.WAVELOOP, _ACCB
5549   0F24   931001C9                         STS       NOISEPLAYER.WAVELOOP+1, _ACCA
5550   0F26   932001CA                         STS       NOISEPLAYER.WAVELOOP+2, _ACCALO
5551   0F28   933001CB                         STS       NOISEPLAYER.WAVELOOP+3, _ACCAHI
5552   0F2A                                    .LINE     305
5553   0F2A       E0EC                         LDI       _ACCCLO, NoisePlayer.WaveEndArray AND 0FFh
5554   0F2B       E0F2                         LDI       _ACCCHI, NoisePlayer.WaveEndArray SHRB 8
5555   0F2C       93EF                         PUSH      _ACCCLO
5556   0F2D       93FF                         PUSH      _ACCCHI
5557   0F2E   9110014A                         LDS       _ACCA, NoisePlayer.wavesel
5558   0F30       2F01                         MOV       _ACCB, _ACCA
5559   0F31       2711                         CLR       _ACCA
5560   0F32       0F00                         LSL       _ACCB
5561   0F33       1F11                         ROL       _ACCA
5562   0F34       0F00                         LSL       _ACCB
5563   0F35       1F11                         ROL       _ACCA
5564   0F36       91FF                         POP       _ACCCHI
5565   0F37       91EF                         POP       _ACCCLO
5566   0F38       0FE0                         ADD       _ACCCLO, _ACCB
5567   0F39       1FF1                         ADC       _ACCCHI, _ACCA
5568   0F3A       9101                         LD        _ACCB, Z+
5569   0F3B       9111                         LD        _ACCA, Z+
5570   0F3C       9121                         LD        _ACCALO, Z+
5571   0F3D       9131                         LD        _ACCAHI, Z+
5572   0F3E   930001C4                         STS       NOISEPLAYER.WAVEEND, _ACCB
5573   0F40   931001C5                         STS       NOISEPLAYER.WAVEEND+1, _ACCA
5574   0F42   932001C6                         STS       NOISEPLAYER.WAVEEND+2, _ACCALO
5575   0F44   933001C7                         STS       NOISEPLAYER.WAVEEND+3, _ACCAHI
5576   0F46                                    .ENDBLOCK 306
5577   0F46            NoisePlayer.GetWaveParams_X:
5578   0F46                                    .LINE     306
5579   0000                                    .BRANCH   19
5580   0F46       9508                         RET
5581   0F47                                    .ENDFUNC  306
5582   0F47            
5583   0F47            
5584   0F47            
5585   0F47                                    ; ++++++++++++++++++++++++++++++++++++++++++++++++++++++++++
5586   0F47                                    ; Program body
5587   0F47                                    ; ++++++++++++++++++++++++++++++++++++++++++++++++++++++++++
5588   0F47            
5589   0F47                                    .FUNC     $_Main, 00138h, 00020h
5590   0F47                                    .ENTRYMAIN $
5591   0F47            NoisePlayer.$_Main:
5592   0F47            
5593   0F47                                    .BLOCK    312
5594   0F47                                    .LINE     313
5595   0034                                    .BRANCH   17,NoisePlayer.INITPORTS
5596   0F47   940E0034                         CALL      NoisePlayer.INITPORTS
5597   0F49            
5598   0F49                                    .LINE     314
5599   0F49       E810                         LDI       _ACCA, 1 SHLB IntFlag
5600   0F4A       2A41                         OR        Flags, _ACCA
5601   0F4B       9478                         SEI
5602   0F4C                                    .LINE     315
5603   01E5                                    .BRANCH   17,NoisePlayer.WRITECHPREFIX
5604   0F4C   940E01E5                         CALL      NoisePlayer.WRITECHPREFIX
5605   0F4E            
5606   0F4E                                    .LINE     316
5607   0F4E       93CF                         PUSH      _FRAMEPTR
5608   0F4F       93DF                         PUSH      _FPTRHI
5609   0F50       E018                         LDI       _ACCA, 1 SHLB _DEVICE
5610   0F51       2A41                         OR        Flags, _ACCA
5611   0F52       E50A                         LDI       _ACCB, SYSTEM.serout SHRB 1
5612   0F53       E112                         LDI       _ACCA, SYSTEM.serout SHRB 9
5613   0F54       931A                         ST        -Y, _ACCA
5614   0F55       930A                         ST        -Y, _ACCB
5615   0F56                                    .FRAME  2
5616   0F56       E5EC                         LDI       _ACCCLO, NoisePlayer.Vers1Str AND 0FFh
5617   0F57       E2FF                         LDI       _ACCCHI, NoisePlayer.Vers1Str SHRB 8
5618   0F58   940E1439                         CALL      SYSTEM.StrConst2Str
5619   0F5A            NoisePlayer._L0369:
5620   0F5A       91DF                         POP       _FPTRHI
5621   0F5B       91CF                         POP       _FRAMEPTR
5622   0F5C                                    .FRAME  0
5623   0F5C                                    .LINE     320
5624   0F5C       E010                         LDI       _ACCA, 00080h SHRB 8
5625   0F5D       E800                         LDI       _ACCB, 00080h AND 0FFh
5626   0F5E   93100089                         STS       PWMPORT1A+1, _ACCA
5627   0F60   93000088                         STS       PWMPORT1A, _ACCB
5628   0F62                                    .LINE     321
5629   0F62                                    .LOOP
5630   0F62       E0E8                         LDI       _ACCCLO, NoisePlayer.i AND 0FFh
5631   0F63       E0F0                         LDI       _ACCCHI, NoisePlayer.i SHRB 8
5632   0F64       93FA                         ST        -Y, _ACCCHI
5633   0F65       93EA                         ST        -Y, _ACCCLO
5634   0F66                                    .FRAME  2
5635   0F66       E010                         LDI       _ACCA, 000h
5636   0F67       8310                         ST        Z, _ACCA
5637   0F68       E017                         LDI       _ACCA, 007h
5638   0F69       931A                         ST        -Y, _ACCA
5639   0F6A                                    .FRAME  3
5640   0F6A       8110                         LD        _ACCA, Z
5641   0F6B            NoisePlayer._L0372:
5642   0F6B       8108                         LDD       _ACCB, Y+000h
5643   0F6C       1701                         CP        _ACCB, _ACCA
5644   0F6D       EF1F                         LDI       _ACCA, 0FFh
5645   0F6E       F008                         BRLO      NoisePlayer._L0373
5646   0F6F       2711                         CLR       _ACCA
5647   0F70            NoisePlayer._L0373:
5648   0F70       2311                         TST       _ACCA
5649   0F74                                    .BRANCH   3,NoisePlayer._L0374
5650   0F71       F011                         BREQ      NoisePlayer._L0374
5651   0FF5                                    .BRANCH   20,NoisePlayer._L0371
5652   0F72   940C0FF5                         JMP       NoisePlayer._L0371
5653   0F74            NoisePlayer._L0374:
5654   0F74                                    .BLOCK    322
5655   0F74                                    .LINE     322
5656   0F74       ECEC                         LDI       _ACCCLO, NoisePlayer.WaveStartArray AND 0FFh
5657   0F75       E0F1                         LDI       _ACCCHI, NoisePlayer.WaveStartArray SHRB 8
5658   0F76       93EF                         PUSH      _ACCCLO
5659   0F77       93FF                         PUSH      _ACCCHI
5660   0F78       2D18                         MOV       _ACCA, NoisePlayer.i
5661   0F79       2F01                         MOV       _ACCB, _ACCA
5662   0F7A       2711                         CLR       _ACCA
5663   0F7B       0F00                         LSL       _ACCB
5664   0F7C       1F11                         ROL       _ACCA
5665   0F7D       0F00                         LSL       _ACCB
5666   0F7E       1F11                         ROL       _ACCA
5667   0F7F       91FF                         POP       _ACCCHI
5668   0F80       91EF                         POP       _ACCCLO
5669   0F81       0FE0                         ADD       _ACCCLO, _ACCB
5670   0F82       1FF1                         ADC       _ACCCHI, _ACCA
5671   0F83       93EF                         PUSH      _ACCCLO
5672   0F84       93FF                         PUSH      _ACCCHI
5673   0F85       E0E0                         LDI       _ACCCLO, NoisePlayer.EEWaveStartArray AND 0FFh
5674   0F86       E0F0                         LDI       _ACCCHI, NoisePlayer.EEWaveStartArray SHRB 8
5675   0F87       93EF                         PUSH      _ACCCLO
5676   0F88       93FF                         PUSH      _ACCCHI
5677   0F89       2D18                         MOV       _ACCA, NoisePlayer.i
5678   0F8A       2F01                         MOV       _ACCB, _ACCA
5679   0F8B       2711                         CLR       _ACCA
5680   0F8C       0F00                         LSL       _ACCB
5681   0F8D       1F11                         ROL       _ACCA
5682   0F8E       0F00                         LSL       _ACCB
5683   0F8F       1F11                         ROL       _ACCA
5684   0F90       91FF                         POP       _ACCCHI
5685   0F91       91EF                         POP       _ACCCLO
5686   0F92       0FE0                         ADD       _ACCCLO, _ACCB
5687   0F93       1FF1                         ADC       _ACCCHI, _ACCA
5688   0F94   940E12C8                         CALL      SYSTEM._ReadEEp32
5689   0F96       91FF                         POP       _ACCCHI
5690   0F97       91EF                         POP       _ACCCLO
5691   0F98       9301                         ST        Z+, _ACCB
5692   0F99       9311                         ST        Z+, _ACCA
5693   0F9A       9321                         ST        Z+, _ACCALO
5694   0F9B       9331                         ST        Z+, _ACCAHI
5695   0F9C                                    .LINE     323
5696   0F9C       EEEC                         LDI       _ACCCLO, NoisePlayer.WaveLoopArray AND 0FFh
5697   0F9D       E0F1                         LDI       _ACCCHI, NoisePlayer.WaveLoopArray SHRB 8
5698   0F9E       93EF                         PUSH      _ACCCLO
5699   0F9F       93FF                         PUSH      _ACCCHI
5700   0FA0       2D18                         MOV       _ACCA, NoisePlayer.i
5701   0FA1       2F01                         MOV       _ACCB, _ACCA
5702   0FA2       2711                         CLR       _ACCA
5703   0FA3       0F00                         LSL       _ACCB
5704   0FA4       1F11                         ROL       _ACCA
5705   0FA5       0F00                         LSL       _ACCB
5706   0FA6       1F11                         ROL       _ACCA
5707   0FA7       91FF                         POP       _ACCCHI
5708   0FA8       91EF                         POP       _ACCCLO
5709   0FA9       0FE0                         ADD       _ACCCLO, _ACCB
5710   0FAA       1FF1                         ADC       _ACCCHI, _ACCA
5711   0FAB       93EF                         PUSH      _ACCCLO
5712   0FAC       93FF                         PUSH      _ACCCHI
5713   0FAD       E2E0                         LDI       _ACCCLO, NoisePlayer.EEWaveLoopArray AND 0FFh
5714   0FAE       E0F0                         LDI       _ACCCHI, NoisePlayer.EEWaveLoopArray SHRB 8
5715   0FAF       93EF                         PUSH      _ACCCLO
5716   0FB0       93FF                         PUSH      _ACCCHI
5717   0FB1       2D18                         MOV       _ACCA, NoisePlayer.i
5718   0FB2       2F01                         MOV       _ACCB, _ACCA
5719   0FB3       2711                         CLR       _ACCA
5720   0FB4       0F00                         LSL       _ACCB
5721   0FB5       1F11                         ROL       _ACCA
5722   0FB6       0F00                         LSL       _ACCB
5723   0FB7       1F11                         ROL       _ACCA
5724   0FB8       91FF                         POP       _ACCCHI
5725   0FB9       91EF                         POP       _ACCCLO
5726   0FBA       0FE0                         ADD       _ACCCLO, _ACCB
5727   0FBB       1FF1                         ADC       _ACCCHI, _ACCA
5728   0FBC   940E12C8                         CALL      SYSTEM._ReadEEp32
5729   0FBE       91FF                         POP       _ACCCHI
5730   0FBF       91EF                         POP       _ACCCLO
5731   0FC0       9301                         ST        Z+, _ACCB
5732   0FC1       9311                         ST        Z+, _ACCA
5733   0FC2       9321                         ST        Z+, _ACCALO
5734   0FC3       9331                         ST        Z+, _ACCAHI
5735   0FC4                                    .LINE     324
5736   0FC4       E0EC                         LDI       _ACCCLO, NoisePlayer.WaveEndArray AND 0FFh
5737   0FC5       E0F2                         LDI       _ACCCHI, NoisePlayer.WaveEndArray SHRB 8
5738   0FC6       93EF                         PUSH      _ACCCLO
5739   0FC7       93FF                         PUSH      _ACCCHI
5740   0FC8       2D18                         MOV       _ACCA, NoisePlayer.i
5741   0FC9       2F01                         MOV       _ACCB, _ACCA
5742   0FCA       2711                         CLR       _ACCA
5743   0FCB       0F00                         LSL       _ACCB
5744   0FCC       1F11                         ROL       _ACCA
5745   0FCD       0F00                         LSL       _ACCB
5746   0FCE       1F11                         ROL       _ACCA
5747   0FCF       91FF                         POP       _ACCCHI
5748   0FD0       91EF                         POP       _ACCCLO
5749   0FD1       0FE0                         ADD       _ACCCLO, _ACCB
5750   0FD2       1FF1                         ADC       _ACCCHI, _ACCA
5751   0FD3       93EF                         PUSH      _ACCCLO
5752   0FD4       93FF                         PUSH      _ACCCHI
5753   0FD5       E4E0                         LDI       _ACCCLO, NoisePlayer.EEWaveEndArray AND 0FFh
5754   0FD6       E0F0                         LDI       _ACCCHI, NoisePlayer.EEWaveEndArray SHRB 8
5755   0FD7       93EF                         PUSH      _ACCCLO
5756   0FD8       93FF                         PUSH      _ACCCHI
5757   0FD9       2D18                         MOV       _ACCA, NoisePlayer.i
5758   0FDA       2F01                         MOV       _ACCB, _ACCA
5759   0FDB       2711                         CLR       _ACCA
5760   0FDC       0F00                         LSL       _ACCB
5761   0FDD       1F11                         ROL       _ACCA
5762   0FDE       0F00                         LSL       _ACCB
5763   0FDF       1F11                         ROL       _ACCA
5764   0FE0       91FF                         POP       _ACCCHI
5765   0FE1       91EF                         POP       _ACCCLO
5766   0FE2       0FE0                         ADD       _ACCCLO, _ACCB
5767   0FE3       1FF1                         ADC       _ACCCHI, _ACCA
5768   0FE4   940E12C8                         CALL      SYSTEM._ReadEEp32
5769   0FE6       91FF                         POP       _ACCCHI
5770   0FE7       91EF                         POP       _ACCCLO
5771   0FE8       9301                         ST        Z+, _ACCB
5772   0FE9       9311                         ST        Z+, _ACCA
5773   0FEA       9321                         ST        Z+, _ACCALO
5774   0FEB       9331                         ST        Z+, _ACCAHI
5775   0FEC                                    .ENDBLOCK 325
5776   0FEC            NoisePlayer._L0370:
5777   0FEC                                    .LINE     325
5778   0FEC       81E9                         LDD       _ACCCLO, Y+001h
5779   0FED       81FA                         LDD       _ACCCHI, Y+002h
5780   0FEE       8110                         LD        _ACCA, Z
5781   0FEF       9513                         INC       _ACCA
5782   0FF0       8310                         ST        Z, _ACCA
5783   0FF1       2311                         TST       _ACCA
5784   0FF5                                    .BRANCH   3,NoisePlayer._L0371
5785   0FF2       F011                         BREQ      NoisePlayer._L0371
5786   0F6B                                    .BRANCH   20,NoisePlayer._L0372
5787   0FF3   940C0F6B                         JMP       NoisePlayer._L0372
5788   0FF5            NoisePlayer._L0371:
5789   0FF5       9623                         ADIW      _FRAMEPTR, 3
5790   0FF6                                    .FRAME  0
5791   0FF6                                    .ENDLOOP
5792   0FF6                                    .LINE     326
5793   0FF6       E010                         LDI       _ACCA, 000h
5794   0FF7   93100149                         STS       NOISEPLAYER.OLDSWITCHPORT, _ACCA
5795   0FF9            NoisePlayer._L0375:
5796   0FF9                                    .BLOCK    328
5797   0FF9                                    .LINE     330
5798   0FF9   940E1253                         CALL       SYSTEM.SERSTAT
5799   0FFB            
5800   0FFB       2311                         TST       _ACCA
5801   0FFF                                    .BRANCH   4,NoisePlayer._L0379
5802   0FFC       F411                         BRNE      NoisePlayer._L0379
5803   1005                                    .BRANCH   20,NoisePlayer._L0377
5804   0FFD   940C1005                         JMP       NoisePlayer._L0377
5805   0FFF            NoisePlayer._L0379:
5806   0FFF                                    .BLOCK    330
5807   0FFF                                    .LINE     331
5808   0FFF       93CF                         PUSH      _FRAMEPTR
5809   1000       93DF                         PUSH      _FPTRHI
5810   0E8B                                    .BRANCH   17,NoisePlayer.CHECKSER
5811   1001   940E0E8B                         CALL      NoisePlayer.CHECKSER
5812   1003       91DF                         POP       _FPTRHI
5813   1004       91CF                         POP       _FRAMEPTR
5814   1005            
5815   1005                                    .ENDBLOCK 332
5816   1005            NoisePlayer._L0377:
5817   1005            NoisePlayer._L0378:
5818   1005                                    .LINE     333
5819   1005       B116                         IN        _ACCA, PinC
5820   1006       7013                         ANDI      _ACCA, 003h
5821   1007   93100148                         STS       NOISEPLAYER.SWITCHPORT, _ACCA
5822   1009                                    .LINE     334
5823   1009   91100148                         LDS       _ACCA, NoisePlayer.Switchport
5824   100B       931F                         PUSH      _ACCA
5825   100C   91100149                         LDS       _ACCA, NoisePlayer.oldSwitchPort
5826   100E       910F                         POP       _ACCB
5827   100F       1701                         CP        _ACCB, _ACCA
5828   1010       E010                         LDI       _ACCA, 0h
5829   1011       F009                         BREQ      NoisePlayer._L0380
5830   1012       EF1F                         SER       _ACCA
5831   1013            NoisePlayer._L0380:
5832   1013       931F                         PUSH      _ACCA
5833   1014   91100148                         LDS       _ACCA, NoisePlayer.Switchport
5834   1016       3013                         CPI       _ACCA, 003h
5835   1017       E010                         LDI       _ACCA, 0h
5836   1018       F409                         BRNE      NoisePlayer._L0381
5837   1019       EF1F                         SER       _ACCA
5838   101A            NoisePlayer._L0381:
5839   101A       910F                         POP       _ACCB
5840   101B       2B10                         OR        _ACCA, _ACCB
5841   101C       2311                         TST       _ACCA
5842   1020                                    .BRANCH   4,NoisePlayer._L0384
5843   101D       F411                         BRNE      NoisePlayer._L0384
5844   10A9                                    .BRANCH   20,NoisePlayer._L0382
5845   101E   940C10A9                         JMP       NoisePlayer._L0382
5846   1020            NoisePlayer._L0384:
5847   1020                                    .BLOCK    334
5848   1020                                    .LINE     335
5849   1020   91100148                         LDS       _ACCA, NoisePlayer.Switchport
5850   1022       3013                         CPI       _ACCA, 003h
5851   1023       E010                         LDI       _ACCA, 0h
5852   1024       F409                         BRNE      NoisePlayer._L0385
5853   1025       EF1F                         SER       _ACCA
5854   1026            NoisePlayer._L0385:
5855   1026       2311                         TST       _ACCA
5856   102A                                    .BRANCH   4,NoisePlayer._L0388
5857   1027       F411                         BRNE      NoisePlayer._L0388
5858   1059                                    .BRANCH   20,NoisePlayer._L0386
5859   1028   940C1059                         JMP       NoisePlayer._L0386
5860   102A            NoisePlayer._L0388:
5861   102A                                    .BLOCK    335
5862   102A                                    .LINE     336
5863   102A       2711                         CLR       _ACCA
5864   102B       E070                         LDI       _ACCEHI, 000h
5865   102C       157A                         CP        _ACCEHI, NoisePlayer.sw_debounce
5866   102D       F410                         BRCC      NoisePlayer._L0389
5867   102E            NoisePlayer._L0390:
5868   102E       94AA                         DEC       NoisePlayer.sw_debounce
5869   102F       EF1F                         SER       _ACCA
5870   1030            NoisePlayer._L0389:
5871   1030                                    .LINE     337
5872   1030       985B                         CBI       0002Bh, 003h
5873   1031                                    .LINE     338
5874   1031   9110014E                         LDS       _ACCA, NoisePlayer.wasrunning
5875   1033       2311                         TST       _ACCA
5876   1037                                    .BRANCH   4,NoisePlayer._L0393
5877   1034       F411                         BRNE      NoisePlayer._L0393
5878   1059                                    .BRANCH   20,NoisePlayer._L0391
5879   1035   940C1059                         JMP       NoisePlayer._L0391
5880   1037            NoisePlayer._L0393:
5881   1037                                    .BLOCK    338
5882   1037                                    .LINE     339
5883   1037   9110014B                         LDS       _ACCA, NoisePlayer.startcomplete
5884   1039       2311                         TST       _ACCA
5885   103D                                    .BRANCH   4,NoisePlayer._L0396
5886   103A       F411                         BRNE      NoisePlayer._L0396
5887   1042                                    .BRANCH   20,NoisePlayer._L0394
5888   103B   940C1042                         JMP       NoisePlayer._L0394
5889   103D            NoisePlayer._L0396:
5890   103D                                    .BLOCK    339
5891   103D                                    .LINE     340
5892   103D       E013                         LDI       _ACCA, 003h
5893   103E   9310014A                         STS       NOISEPLAYER.WAVESEL, _ACCA
5894   1040                                    .ENDBLOCK 341
5895   1045                                    .BRANCH   20,NoisePlayer._L0395
5896   1040   940C1045                         JMP       NoisePlayer._L0395
5897   1042            NoisePlayer._L0394:
5898   1042                                    .BLOCK    341
5899   1042                                    .LINE     342
5900   1042       E014                         LDI       _ACCA, 004h
5901   1043   9310014A                         STS       NOISEPLAYER.WAVESEL, _ACCA
5902   1045                                    .ENDBLOCK 343
5903   1045            NoisePlayer._L0395:
5904   1045                                    .LINE     344
5905   0EF2                                    .BRANCH   17,NoisePlayer.GETWAVEPARAMS
5906   1045   940E0EF2                         CALL      NoisePlayer.GETWAVEPARAMS
5907   1047            
5908   1047                                    .LINE     345
5909   1047       E010                         LDI       _ACCA, 000h
5910   1048   9310014D                         STS       NOISEPLAYER.PWMSLOWER, _ACCA
5911   104A                                    .LINE     346
5912   104A       E010                         LDI       _ACCA, 000h
5913   104B   9310014E                         STS       NOISEPLAYER.WASRUNNING, _ACCA
5914   104D                                    .LINE     347
5915   104D       2D1A                         MOV       _ACCA, NoisePlayer.sw_debounce
5916   104E       3010                         CPI       _ACCA, 000h
5917   104F       E010                         LDI       _ACCA, 0h
5918   1050       F409                         BRNE      NoisePlayer._L0397
5919   1051       EF1F                         SER       _ACCA
5920   1052            NoisePlayer._L0397:
5921   1052       2311                         TST       _ACCA
5922   1056                                    .BRANCH   4,NoisePlayer._L0400
5923   1053       F411                         BRNE      NoisePlayer._L0400
5924   1059                                    .BRANCH   20,NoisePlayer._L0398
5925   1054   940C1059                         JMP       NoisePlayer._L0398
5926   1056            NoisePlayer._L0400:
5927   1056                                    .BLOCK    347
5928   1056                                    .LINE     348
5929   1056       E010                         LDI       _ACCA, 000h
5930   1057   9310014B                         STS       NOISEPLAYER.STARTCOMPLETE, _ACCA
5931   1059                                    .ENDBLOCK 349
5932   1059            NoisePlayer._L0398:
5933   1059            NoisePlayer._L0399:
5934   1059                                    .ENDBLOCK 350
5935   1059            NoisePlayer._L0391:
5936   1059            NoisePlayer._L0392:
5937   1059                                    .ENDBLOCK 351
5938   1059            NoisePlayer._L0386:
5939   1059            NoisePlayer._L0387:
5940   1059                                    .LINE     352
5941   1059   91000148                         LDS       _ACCB, 00148h
5942   105B       2711                         CLR       _ACCA
5943   105C       FD00                         SBRC      _ACCB, 000h
5944   105D       EF1F                         SER       _ACCA
5945   105E       9510                         COM       _ACCA
5946   105F       2311                         TST       _ACCA
5947   1063                                    .BRANCH   4,NoisePlayer._L0403
5948   1060       F411                         BRNE      NoisePlayer._L0403
5949   106E                                    .BRANCH   20,NoisePlayer._L0401
5950   1061   940C106E                         JMP       NoisePlayer._L0401
5951   1063            NoisePlayer._L0403:
5952   1063                                    .BLOCK    353
5953   1063                                    .LINE     353
5954   1063       E010                         LDI       _ACCA, 000h
5955   1064   9310014A                         STS       NOISEPLAYER.WAVESEL, _ACCA
5956   1066                                    .LINE     354
5957   0EF2                                    .BRANCH   17,NoisePlayer.GETWAVEPARAMS
5958   1066   940E0EF2                         CALL      NoisePlayer.GETWAVEPARAMS
5959   1068            
5960   1068                                    .LINE     355
5961   1068       EF1F                         LDI       _ACCA, 0FFh
5962   1069   9310014C                         STS       NOISEPLAYER.PWMENABLED, _ACCA
5963   106B                                    .LINE     356
5964   106B       EF1F                         LDI       _ACCA, 0FFh
5965   106C   9310014E                         STS       NOISEPLAYER.WASRUNNING, _ACCA
5966   106E                                    .ENDBLOCK 357
5967   106E            NoisePlayer._L0401:
5968   106E            NoisePlayer._L0402:
5969   106E                                    .LINE     358
5970   106E   91000148                         LDS       _ACCB, 00148h
5971   1070       2711                         CLR       _ACCA
5972   1071       FD01                         SBRC      _ACCB, 001h
5973   1072       EF1F                         SER       _ACCA
5974   1073       9510                         COM       _ACCA
5975   1074       2311                         TST       _ACCA
5976   1078                                    .BRANCH   4,NoisePlayer._L0406
5977   1075       F411                         BRNE      NoisePlayer._L0406
5978   10A6                                    .BRANCH   20,NoisePlayer._L0404
5979   1076   940C10A6                         JMP       NoisePlayer._L0404
5980   1078            NoisePlayer._L0406:
5981   1078                                    .BLOCK    358
5982   1078                                    .LINE     359
5983   1078       E011                         LDI       _ACCA, 001h
5984   1079   9310014A                         STS       NOISEPLAYER.WAVESEL, _ACCA
5985   107B                                    .LINE     360
5986   0EF2                                    .BRANCH   17,NoisePlayer.GETWAVEPARAMS
5987   107B   940E0EF2                         CALL      NoisePlayer.GETWAVEPARAMS
5988   107D            
5989   107D                                    .LINE     361
5990   107D       EF1F                         LDI       _ACCA, 0FFh
5991   107E   9310014E                         STS       NOISEPLAYER.WASRUNNING, _ACCA
5992   1080                                    .LINE     362
5993   1080       EF1F                         LDI       _ACCA, 0FFh
5994   1081       2EA1                         MOV       NOISEPLAYER.SW_DEBOUNCE, _ACCA
5995   1082                                    .LINE     363
5996   1082   91000148                         LDS       _ACCB, 00148h
5997   1084       2711                         CLR       _ACCA
5998   1085       FD00                         SBRC      _ACCB, 000h
5999   1086       EF1F                         SER       _ACCA
6000   1087       9510                         COM       _ACCA
6001   1088       2311                         TST       _ACCA
6002   108C                                    .BRANCH   4,NoisePlayer._L0409
6003   1089       F411                         BRNE      NoisePlayer._L0409
6004   1093                                    .BRANCH   20,NoisePlayer._L0407
6005   108A   940C1093                         JMP       NoisePlayer._L0407
6006   108C            NoisePlayer._L0409:
6007   108C                                    .BLOCK    364
6008   108C                                    .LINE     364
6009   108C       E012                         LDI       _ACCA, 002h
6010   108D   9310014A                         STS       NOISEPLAYER.WAVESEL, _ACCA
6011   108F                                    .LINE     365
6012   0EF2                                    .BRANCH   17,NoisePlayer.GETWAVEPARAMS
6013   108F   940E0EF2                         CALL      NoisePlayer.GETWAVEPARAMS
6014   1091            
6015   1091                                    .ENDBLOCK 366
6016   1098                                    .BRANCH   20,NoisePlayer._L0408
6017   1091   940C1098                         JMP       NoisePlayer._L0408
6018   1093            NoisePlayer._L0407:
6019   1093                                    .BLOCK    366
6020   1093                                    .LINE     367
6021   1093       E011                         LDI       _ACCA, 001h
6022   1094   9310014A                         STS       NOISEPLAYER.WAVESEL, _ACCA
6023   1096                                    .LINE     368
6024   0EF2                                    .BRANCH   17,NoisePlayer.GETWAVEPARAMS
6025   1096   940E0EF2                         CALL      NoisePlayer.GETWAVEPARAMS
6026   1098            
6027   1098                                    .ENDBLOCK 369
6028   1098            NoisePlayer._L0408:
6029   1098                                    .LINE     370
6030   1098   9110014B                         LDS       _ACCA, NoisePlayer.startcomplete
6031   109A       2311                         TST       _ACCA
6032   109E                                    .BRANCH   4,NoisePlayer._L0412
6033   109B       F411                         BRNE      NoisePlayer._L0412
6034   10A1                                    .BRANCH   20,NoisePlayer._L0410
6035   109C   940C10A1                         JMP       NoisePlayer._L0410
6036   109E            NoisePlayer._L0412:
6037   109E                                    .BLOCK    370
6038   109E                                    .LINE     371
6039   109E       9A5A                         SBI       0002Bh, 002h
6040   109F                                    .ENDBLOCK 372
6041   10A4                                    .BRANCH   20,NoisePlayer._L0411
6042   109F   940C10A4                         JMP       NoisePlayer._L0411
6043   10A1            NoisePlayer._L0410:
6044   10A1                                    .BLOCK    372
6045   10A1                                    .LINE     373
6046   10A1       EF1F                         LDI       _ACCA, 0FFh
6047   10A2   9310014D                         STS       NOISEPLAYER.PWMSLOWER, _ACCA
6048   10A4                                    .ENDBLOCK 374
6049   10A4            NoisePlayer._L0411:
6050   10A4                                    .ENDBLOCK 375
6051   10A7                                    .BRANCH   20,NoisePlayer._L0405
6052   10A4   940C10A7                         JMP       NoisePlayer._L0405
6053   10A6            NoisePlayer._L0404:
6054   10A6                                    .BLOCK    375
6055   10A6                                    .LINE     376
6056   10A6       985A                         CBI       0002Bh, 002h
6057   10A7                                    .ENDBLOCK 377
6058   10A7            NoisePlayer._L0405:
6059   10A7                                    .LINE     378
6060   01C7                                    .BRANCH   17,NoisePlayer.DFSETREADADDR
6061   10A7   940E01C7                         CALL      NoisePlayer.DFSETREADADDR
6062   10A9            
6063   10A9                                    .ENDBLOCK 379
6064   10A9            NoisePlayer._L0382:
6065   10A9            NoisePlayer._L0383:
6066   10A9                                    .LINE     380
6067   10A9   91100148                         LDS       _ACCA, NoisePlayer.Switchport
6068   10AB   93100149                         STS       NOISEPLAYER.OLDSWITCHPORT, _ACCA
6069   10AD                                    .LINE     381
6070   10AD   9110014D                         LDS       _ACCA, NoisePlayer.PWMslower
6071   10AF       2311                         TST       _ACCA
6072   10B3                                    .BRANCH   4,NoisePlayer._L0415
6073   10B0       F411                         BRNE      NoisePlayer._L0415
6074   10B6                                    .BRANCH   20,NoisePlayer._L0413
6075   10B1   940C10B6                         JMP       NoisePlayer._L0413
6076   10B3            NoisePlayer._L0415:
6077   10B3                                    .BLOCK    381
6078   10B3                                    .LINE     382
6079   10B3       E012                         LDI       _ACCA, 002h
6080   10B4                                    .FRAME  0
6081   10B4   940E128B                         CALL      SYSTEM.UDELAY
6082   10B6            
6083   10B6                                    .ENDBLOCK 383
6084   10B6            NoisePlayer._L0413:
6085   10B6            NoisePlayer._L0414:
6086   10B6                                    .LINE     386
6087   10B6   9110014C                         LDS       _ACCA, NoisePlayer.PWMenabled
6088   10B8       2311                         TST       _ACCA
6089   10BC                                    .BRANCH   4,NoisePlayer._L0418
6090   10B9       F411                         BRNE      NoisePlayer._L0418
6091   1139                                    .BRANCH   20,NoisePlayer._L0416
6092   10BA   940C1139                         JMP       NoisePlayer._L0416
6093   10BC            NoisePlayer._L0418:
6094   10BC                                    .BLOCK    386
6095   10BC                                    .LINE     387
6096   10BC   91000187                         LDS       _ACCB, NoisePlayer.DF_long
6097   10BE   91100188                         LDS       _ACCA, NoisePlayer.DF_long+1
6098   10C0   91200189                         LDS       _ACCALO, NoisePlayer.DF_long+2
6099   10C2   9130018A                         LDS       _ACCAHI, NoisePlayer.DF_long+3
6100   10C4       930F                         PUSH      _ACCB
6101   10C5       931F                         PUSH      _ACCA
6102   10C6       932F                         PUSH      _ACCALO
6103   10C7       933F                         PUSH      _ACCAHI
6104   10C8   910001C4                         LDS       _ACCB, NoisePlayer.WaveEnd
6105   10CA   911001C5                         LDS       _ACCA, NoisePlayer.WaveEnd+1
6106   10CC   912001C6                         LDS       _ACCALO, NoisePlayer.WaveEnd+2
6107   10CE   913001C7                         LDS       _ACCAHI, NoisePlayer.WaveEnd+3
6108   10D0       01D8                         MOVW      _ACCBLO, _ACCB
6109   10D1       01F9                         MOVW      _ACCCLO, _ACCALO
6110   10D2       913F                         POP       _ACCAHI
6111   10D3       912F                         POP       _ACCALO
6112   10D4       911F                         POP       _ACCA
6113   10D5       910F                         POP       _ACCB
6114   10D6       E840                         LDI       _ACCDLO, 080h
6115   10D7       27F4                         EOR       _ACCCHI, _ACCDLO
6116   10D8       2734                         EOR       _ACCAHI, _ACCDLO
6117   10D9       173F                         CP        _ACCAHI, _ACCCHI
6118   10DA       F429                         BRNE      NoisePlayer._L0419
6119   10DB       172E                         CP        _ACCALO, _ACCCLO
6120   10DC       F419                         BRNE      NoisePlayer._L0419
6121   10DD       171B                         CP        _ACCA, _ACCBHI
6122   10DE       F409                         BRNE      NoisePlayer._L0419
6123   10DF       170A                         CP        _ACCB, _ACCBLO
6124   10E0            NoisePlayer._L0419:
6125   10E0       E010                         LDI       _ACCA, 0h
6126   10E1       F011                         BREQ      NoisePlayer._L0420
6127   10E2       F008                         BRLO      NoisePlayer._L0420
6128   10E3       EF1F                         SER       _ACCA
6129   10E4            NoisePlayer._L0420:
6130   10E4       2311                         TST       _ACCA
6131   10E8                                    .BRANCH   4,NoisePlayer._L0423
6132   10E5       F411                         BRNE      NoisePlayer._L0423
6133   110A                                    .BRANCH   20,NoisePlayer._L0421
6134   10E6   940C110A                         JMP       NoisePlayer._L0421
6135   10E8            NoisePlayer._L0423:
6136   10E8                                    .BLOCK    387
6137   10E8                                    .LINE     388
6138   10E8   910001C8                         LDS       _ACCB, NoisePlayer.WaveLoop
6139   10EA   911001C9                         LDS       _ACCA, NoisePlayer.WaveLoop+1
6140   10EC   912001CA                         LDS       _ACCALO, NoisePlayer.WaveLoop+2
6141   10EE   913001CB                         LDS       _ACCAHI, NoisePlayer.WaveLoop+3
6142   10F0   93000187                         STS       NOISEPLAYER.DF_LONG, _ACCB
6143   10F2   93100188                         STS       NOISEPLAYER.DF_LONG+1, _ACCA
6144   10F4   93200189                         STS       NOISEPLAYER.DF_LONG+2, _ACCALO
6145   10F6   9330018A                         STS       NOISEPLAYER.DF_LONG+3, _ACCAHI
6146   10F8                                    .LINE     389
6147   01C7                                    .BRANCH   17,NoisePlayer.DFSETREADADDR
6148   10F8   940E01C7                         CALL      NoisePlayer.DFSETREADADDR
6149   10FA            
6150   10FA                                    .LINE     390
6151   10FA   9110014A                         LDS       _ACCA, NoisePlayer.wavesel
6152   10FC       3010                         CPI       _ACCA, 000h
6153   10FD       E010                         LDI       _ACCA, 0h
6154   10FE       F409                         BRNE      NoisePlayer._L0424
6155   10FF       EF1F                         SER       _ACCA
6156   1100            NoisePlayer._L0424:
6157   1100       2311                         TST       _ACCA
6158   1104                                    .BRANCH   4,NoisePlayer._L0427
6159   1101       F411                         BRNE      NoisePlayer._L0427
6160   1108                                    .BRANCH   20,NoisePlayer._L0425
6161   1102   940C1108                         JMP       NoisePlayer._L0425
6162   1104            NoisePlayer._L0427:
6163   1104                                    .BLOCK    391
6164   1104                                    .LINE     391
6165   1104       EF1F                         LDI       _ACCA, 0FFh
6166   1105   9310014B                         STS       NOISEPLAYER.STARTCOMPLETE, _ACCA
6167   1107                                    .LINE     392
6168   1107       9A5B                         SBI       0002Bh, 003h
6169   1108                                    .ENDBLOCK 393
6170   1108            NoisePlayer._L0425:
6171   1108            NoisePlayer._L0426:
6172   1108                                    .ENDBLOCK 394
6173   111D                                    .BRANCH   20,NoisePlayer._L0422
6174   1108   940C111D                         JMP       NoisePlayer._L0422
6175   110A            NoisePlayer._L0421:
6176   110A                                    .BLOCK    394
6177   110A                                    .LINE     395
6178   110A   91A00187                         LDS       _ACCBLO, NoisePlayer.DF_Long
6179   110C   91B00188                         LDS       _ACCBHI, NoisePlayer.DF_Long+1
6180   110E   91E00189                         LDS       _ACCCLO, NoisePlayer.DF_Long+2
6181   1110   91F0018A                         LDS       _ACCCHI, NoisePlayer.DF_Long+3
6182   1112       9611                         ADIW      _ACCBLO, 1
6183   1113       F408                         BRCC      NoisePlayer._L0428
6184   1114       9631                         ADIW      _ACCCLO, 1
6185   1115            NoisePlayer._L0428:
6186   1115   93A00187                         STS       NoisePlayer.DF_Long, _ACCBLO
6187   1117   93B00188                         STS       NoisePlayer.DF_Long+1, _ACCBHI
6188   1119   93E00189                         STS       NoisePlayer.DF_Long+2, _ACCCLO
6189   111B   93F0018A                         STS       NoisePlayer.DF_Long+3, _ACCCHI
6190   111D                                    .ENDBLOCK 396
6191   111D            NoisePlayer._L0422:
6192   111D                                    .LINE     398
6193   111D   9110018A                         LDS       _ACCA, NoisePlayer.DF_long3
6194   111F       3F1F                         CPI       _ACCA, 0FFh
6195   1120       E010                         LDI       _ACCA, 0h
6196   1121       F409                         BRNE      NoisePlayer._L0429
6197   1122       EF1F                         SER       _ACCA
6198   1123            NoisePlayer._L0429:
6199   1123       2311                         TST       _ACCA
6200   1127                                    .BRANCH   4,NoisePlayer._L0432
6201   1124       F411                         BRNE      NoisePlayer._L0432
6202   1135                                    .BRANCH   20,NoisePlayer._L0430
6203   1125   940C1135                         JMP       NoisePlayer._L0430
6204   1127            NoisePlayer._L0432:
6205   1127                                    .BLOCK    398
6206   1127                                    .LINE     399
6207   1127       E010                         LDI       _ACCA, 000h
6208   1128   9310014C                         STS       NOISEPLAYER.PWMENABLED, _ACCA
6209   112A                                    .LINE     400
6210   112A       E010                         LDI       _ACCA, 000h
6211   112B   9310014D                         STS       NOISEPLAYER.PWMSLOWER, _ACCA
6212   112D                                    .LINE     401
6213   112D       E010                         LDI       _ACCA, 000h
6214   112E   9310014B                         STS       NOISEPLAYER.STARTCOMPLETE, _ACCA
6215   1130                                    .LINE     402
6216   1130       E810                         LDI       _ACCA, 080h
6217   1131       2EC1                         MOV       NOISEPLAYER.DF_RECEIVE, _ACCA
6218   1132                                    .LINE     403
6219   1132       9A28                         SBI       00025h, 000h
6220   1133                                    .ENDBLOCK 404
6221   1137                                    .BRANCH   20,NoisePlayer._L0431
6222   1133   940C1137                         JMP       NoisePlayer._L0431
6223   1135            NoisePlayer._L0430:
6224   1135                                    .BLOCK    404
6225   1135                                    .LINE     405
6226   0045                                    .BRANCH   17,NoisePlayer.DF_SR
6227   1135   940E0045                         CALL      NoisePlayer.DF_SR
6228   1137            
6229   1137                                    .ENDBLOCK 406
6230   1137            NoisePlayer._L0431:
6231   1137                                    .ENDBLOCK 407
6232   113C                                    .BRANCH   20,NoisePlayer._L0417
6233   1137   940C113C                         JMP       NoisePlayer._L0417
6234   1139            NoisePlayer._L0416:
6235   1139                                    .BLOCK    407
6236   1139                                    .LINE     408
6237   1139       E810                         LDI       _ACCA, 080h
6238   113A       2EC1                         MOV       NOISEPLAYER.DF_RECEIVE, _ACCA
6239   113B                                    .LINE     409
6240   113B       9A28                         SBI       00025h, 000h
6241   113C                                    .ENDBLOCK 410
6242   113C            NoisePlayer._L0417:
6243   113C                                    .ASM
6244   113C                                    PWM_wait1:
6245   113C                                    .LINE     413
6246   113C   91100084                         LDS    _ACCA, TCNT1L ; Portbit PB1
6247   113E                                    .LINE     414
6248   113E       7810                         ANDI   _ACCA, $80
6249   113F                                    .LINE     415
6250   113F       F3E1                         BREQ   PWM_wait1     ; auf Mitte des PWM-pulses warten
6251   1140                                    PWM_wait2:
6252   1140                                    .LINE     417
6253   1140   91100084                         LDS    _ACCA, TCNT1L ; Portbit PB1
6254   1142                                    .LINE     418
6255   1142       7810                         ANDI   _ACCA, $80
6256   1143                                    .LINE     419
6257   1143       F7E1                         BRNE   PWM_wait2
6258   1144                                    .LINE     420
6259   1144   92C00088                         STS    OCR1AL, NoisePlayer.DF_receive ; neuer PWM-Wert
6260   1146                                    .endasm
6261   1146                                    .ENDBLOCK 422
6262   1146                                    .LINE     422
6263   0FF9                                    .BRANCH   20,NoisePlayer._L0375
6264   1146   940C0FF9                         JMP       NoisePlayer._L0375
6265   1148            NoisePlayer._L0376:
6266   1148                                    .ENDBLOCK 423
6267   1148            
6268   1148            NoisePlayer.$_MAINEX:
6269   1148                                    .LINE     423
6270   1148       0000                         NOP
6271   1149                                    .LINE     423
6272   1148                                    .BRANCH   20,NoisePlayer.$_MAINEX
6273   1149       CFFE                         RJMP      NoisePlayer.$_MAINEX
6274   114A            
6275   114A            
6276   114A                                    .ENDFUNC  423
6277   114A            
6278   114A            SYSTEM.$Main_stk        .EQU    0042Ch          ; var iData  Process stack area
6279   114A            SYSTEM.$Main_stk_e      .EQU    0046Bh          ; var iData  Process stack area
6280   114A            SYSTEM.$Main_Frame      .EQU    0046Ch          ; var iData  Process stack area
6281   114A            SYSTEM.$Main_Frame_e    .EQU    004ABh          ; var iData  Process stack area
6282   114A            
6283   114A                                    ; ++++++++++++++++++++++++++++++++++++++++++++++++++++++++++
6284   114A                                    ; Initialisation and Library Routines
6285   114A                                    ; ++++++++++++++++++++++++++++++++++++++++++++++++++++++++++
6286   114A            
6287   114A                                    .ENTRY
6288   114A            SYSTEM.RESET:
6289   114A       94F8                         CLI
6290   114B                                    ; >> Stack Init [main process only] <<
6291   114B       E014                         LDI       _ACCA, 004h
6292   114C       E60B                         LDI       _ACCB, 06Bh
6293   114D       BF1E                         OUT       sph, _ACCA
6294   114E       BF0D                         OUT       spl, _ACCB
6295   114F            
6296   114F            
6297   114F                                    ; >> Memory init <<
6298   114F       2711                         CLR       _ACCA
6299   1150       E1E0                         LDI       _ACCCLO, 16
6300   1151       E0F0                         LDI       _ACCCHI, 0
6301   1152       E0A0                         LDI       _ACCBLO, 0
6302   1153       E0B0                         LDI       _ACCBHI, 0
6303   1154       9631                         ADIW      _ACCCLO, 1
6304   1155            SYSTEM._L0433:
6305   1155       9731                         SBIW      _ACCCLO, 001h
6306   1156       F011                         BREQ      SYSTEM._L0435
6307   1157            SYSTEM._L0434:
6308   1157       931D                         ST        X+, _ACCA
6309   1158       CFFC                         RJMP      SYSTEM._L0433
6310   1159            SYSTEM._L0435:
6311   1159       E0A0                         LDI       _ACCBLO, 00100h AND 0FFh
6312   115A       E0B1                         LDI       _ACCBHI, 00100h SHRB 8
6313   115B       E0E0                         LDI       _ACCCLO, 00400h AND 0FFh
6314   115C       E0F4                         LDI       _ACCCHI, 00400h SHRB 8
6315   115D       9631                         ADIW      _ACCCLO, 1
6316   115E            SYSTEM._L0436:
6317   115E       9731                         SBIW      _ACCCLO, 001h
6318   115F       F011                         BREQ      SYSTEM._L0438
6319   1160            SYSTEM._L0437:
6320   1160       931D                         ST        X+, _ACCA
6321   1161       CFFC                         RJMP      SYSTEM._L0436
6322   1162            SYSTEM._L0438:
6323   1162       EACB                         LDI       _FRAMEPTR, 004ABh AND 0FFh
6324   1163       E0D4                         LDI       _FPTRHI, 004ABh SHRB 8
6325   1164            
6326   1164       94F8                         CLI
6327   1165       E71F                         LDI       _ACCA, 0FEH ROLB IntFlag
6328   1166       2241                         AND       Flags, _ACCA
6329   1167            
6330   1167                                    ; ============ init structured constants ============
6331   1167                                    ; >> Hardware Init <<
6332   1167            
6333   1167                                    ; >> SysTick init: 2msec <<
6334   1167                                    ; >> real SysTick (exact): 2.000 msec <<
6335   1167       E813                         LDI       _ACCA, 083h
6336   1168   93100100                         STS       SysTickTime, _ACCA
6337   116A       BD16                         OUT       tcnt0, _ACCA
6338   116B       E014                         LDI       _ACCA, 4
6339   116C       BD15                         OUT       tccr0, _ACCA
6340   116D       E011                         LDI       _ACCA, 001h
6341   116E   9310006E                         STS       timsk0, _ACCA
6342   1170            
6343   1170                                    ; >> PWMport1 Init <<
6344   1170       9A21                         SBI       DDRB, 1
6345   1171       2711                         CLR       _ACCA
6346   1172   93100085                         STS       tcnt1h, _ACCA
6347   1174   93100084                         STS       tcnt1l, _ACCA
6348   1176   93100089                         STS       ocr1ah, _ACCA
6349   1178   93100088                         STS       ocr1al, _ACCA
6350   117A       E811                         LDI       _ACCA, 081h
6351   117B   93100080                         STS       tccr1a, _ACCA
6352   117D       E011                         LDI       _ACCA, 1
6353   117E   93100081                         STS       tccr1b, _ACCA
6354   1180            
6355   1180                                    ; >> SERPORT Init <<
6356   1180                                    ; >> Baudrate 57600Baud <<
6357   1180                                    
6358   1180                                    ; percent Baudrate error : >> 2.080% <<
6359   1180       E118                         LDI       _ACCA, 018h
6360   1181   931000C1                         STS       ucr1, _ACCA
6361   1183       E110                         LDI       _ACCA, 010h
6362   1184   931000C4                         STS       ubrr1, _ACCA
6363   1186       E010                         LDI       _ACCA, 000h
6364   1187   931000C5                         STS       ubrrh, _ACCA
6365   1189       E010                         LDI       _ACCA, 0
6366   118A   93100102                         STS       _RXINP, _ACCA
6367   118C   93100103                         STS       _RXOUTP, _ACCA
6368   118E   93100104                         STS       _RXCOUNT, _ACCA
6369   1190   911000C1                         LDS       _ACCA, ucr1
6370   1192       6810                         SBR       _ACCA, 80h
6371   1193   931000C1                         STS       ucr1, _ACCA
6372   1195       E010                         LDI       _ACCA, 0
6373   1196   93100125                         STS       _TXINP, _ACCA
6374   1198   93100126                         STS       _TXOUTP, _ACCA
6375   119A   93100127                         STS       _TXCOUNT, _ACCA
6376   119C       E016                         LDI       _ACCA, 006h
6377   119D   931000C2                         STS       ucsrc, _ACCA
6378   119F   911000C6                         LDS       _ACCA, UDR1
6379   11A1            
6380   11A1       2444                         CLR       Flags
6381   11A2       2455                         CLR       Flags2
6382   11A3            
6383   11A3                                    ; ============ Start User Main Program ============
6384   11A3            
6385   11A3                                    .DEB      MAINENTRY
6386   11A3   940C0F47                         JMP       NoisePlayer.$_Main
6387   11A5            
6388   11A5                                    ; ============ Interrupt Service ============
6389   11A5            
6390   11A5            SYSTEM.$INTERRUPT_TIMER0:
6391   11A5                                    .DEB      SYSTICKENTRY
6392   11A5       93EF                         PUSH      _ACCCLO
6393   11A6       93FF                         PUSH      _ACCCHI
6394   11A7       930F                         PUSH      _ACCB
6395   11A8       931F                         PUSH      _ACCA
6396   11A9       B71F                         IN        _ACCA, SREG
6397   11AA       931F                         PUSH      _ACCA
6398   11AB   91100100                         LDS       _ACCA, SysTickTime
6399   11AD       B506                         IN        _ACCB, tcnt0
6400   11AE       0F10                         ADD       _ACCA, _ACCB
6401   11AF       BD16                         OUT       tcnt0, _ACCA
6402   11B0       E71F                         LDI       _ACCA, 0FEH ROLB IntFlag
6403   11B1       2241                         AND       Flags, _ACCA
6404   11B2   91100101                         LDS       _ACCA, _RXTIMEOUT
6405   11B4       2311                         TST       _ACCA
6406   11B5       F019                         BREQ      SYSTEM._L0439
6407   11B6       951A                         DEC       _ACCA
6408   11B7   93100101                         STS       _RXTIMEOUT, _ACCA
6409   11B9            SYSTEM._L0439:
6410   11B9       E810                         LDI       _ACCA, 1 SHLB IntFlag
6411   11BA       2A41                         OR        Flags, _ACCA
6412   11BB       911F                         POP       _ACCA
6413   11BC       BF1F                         OUT       SREG, _ACCA
6414   11BD       911F                         POP       _ACCA
6415   11BE       910F                         POP       _ACCB
6416   11BF       91FF                         POP       _ACCCHI
6417   11C0       91EF                         POP       _ACCCLO
6418   11C1                                    .DEB      SYSTICKEXIT
6419   11C1       9518                         RETI
6420   11C2            
6421   11C2            SYSTEM.$INTERRUPT_TXEMPTY:
6422   11C2            SYSTEM.$INTERRUPT_UDRE:
6423   11C2       93EF                         PUSH      _ACCCLO
6424   11C3       93FF                         PUSH      _ACCCHI
6425   11C4       930F                         PUSH      _ACCB
6426   11C5       931F                         PUSH      _ACCA
6427   11C6       B71F                         IN        _ACCA, SREG
6428   11C7       931F                         PUSH      _ACCA
6429   11C8   91100127                         LDS       _ACCA, _TXCOUNT
6430   11CA       2311                         TST       _ACCA
6431   11CB       F431                         BRNE      SYSTEM._L0440
6432   11CC            SYSTEM._L0444:
6433   11CC   911000C1                         LDS       _ACCA, ucr1
6434   11CE       7D1F                         CBR       _ACCA, 20h
6435   11CF   931000C1                         STS       ucr1, _ACCA
6436   11D1       C01B                         RJMP      SYSTEM._L0442
6437   11D2            SYSTEM._L0440:
6438   11D2   91000126                         LDS       _ACCB, _TXOUTP
6439   11D4       2711                         CLR       _ACCA
6440   11D5       E2E8                         LDI       _ACCCLO, _TXBUFF AND 0FFh
6441   11D6       E0F1                         LDI       _ACCCHI, _TXBUFF SHRB 8
6442   11D7       0FE0                         ADD       _ACCCLO, _ACCB
6443   11D8       1FF1                         ADC       _ACCCHI, _ACCA
6444   11D9       8110                         LD        _ACCA, Z
6445   11DA   931000C6                         STS       UDR1, _ACCA
6446   11DC   91100127                         LDS       _ACCA, _TXCOUNT
6447   11DE       951A                         DEC       _ACCA
6448   11DF   93100127                         STS       _TXCOUNT, _ACCA
6449   11E1       F429                         BRNE      SYSTEM._L0443
6450   11E2   911000C1                         LDS       _ACCA, ucr1
6451   11E4       7D1F                         CBR       _ACCA, 20h
6452   11E5   931000C1                         STS       ucr1, _ACCA
6453   11E7            SYSTEM._L0443:
6454   11E7       9503                         INC       _ACCB
6455   11E8       3200                         CPI       _ACCB, 32
6456   11E9       F409                         BRNE      SYSTEM._L0441
6457   11EA       2700                         CLR       _ACCB
6458   11EB            SYSTEM._L0441:
6459   11EB   93000126                         STS       _TXOUTP, _ACCB
6460   11ED            SYSTEM._L0442:
6461   11ED       911F                         POP       _ACCA
6462   11EE       BF1F                         OUT       SREG, _ACCA
6463   11EF       911F                         POP       _ACCA
6464   11F0       910F                         POP       _ACCB
6465   11F1       91FF                         POP       _ACCCHI
6466   11F2       91EF                         POP       _ACCCLO
6467   11F3       9518                         RETI
6468   11F4            
6469   11F4            SYSTEM.$INTERRUPT_RXRDY:
6470   11F4       93EF                         PUSH      _ACCCLO
6471   11F5       93FF                         PUSH      _ACCCHI
6472   11F6       930F                         PUSH      _ACCB
6473   11F7       931F                         PUSH      _ACCA
6474   11F8       B71F                         IN        _ACCA, SREG
6475   11F9       931F                         PUSH      _ACCA
6476   11FA            SYSTEM._L0450:
6477   11FA   91100104                         LDS       _ACCA, _RXCOUNT
6478   11FC       3210                         CPI       _ACCA, 32
6479   11FD       F419                         BRNE      SYSTEM._L0445
6480   11FE   910000C6                         LDS       _ACCB, UDR1
6481   1200       C01B                         RJMP      SYSTEM._L0447
6482   1201            SYSTEM._L0445:
6483   1201   911000C6                         LDS       _ACCA, UDR1
6484   1203       931F                         PUSH      _ACCA
6485   1204       2711                         CLR       _ACCA
6486   1205   91000102                         LDS       _ACCB, _RXINP
6487   1207       E0E5                         LDI       _ACCCLO, _RXBUFF AND 0FFh
6488   1208       E0F1                         LDI       _ACCCHI, _RXBUFF SHRB 8
6489   1209       0FE0                         ADD       _ACCCLO, _ACCB
6490   120A       1FF1                         ADC       _ACCCHI, _ACCA
6491   120B       911F                         POP       _ACCA
6492   120C       8310                         ST        Z, _ACCA
6493   120D   91100104                         LDS       _ACCA, _RXCOUNT
6494   120F       9513                         INC       _ACCA
6495   1210   93100104                         STS       _RXCOUNT, _ACCA
6496   1212       9503                         INC       _ACCB
6497   1213       3200                         CPI       _ACCB, 32
6498   1214       F409                         BRNE      SYSTEM._L0446
6499   1215       2700                         CLR       _ACCB
6500   1216            SYSTEM._L0446:
6501   1216   93000102                         STS       _RXINP, _ACCB
6502   1218   910000C0                         LDS       _ACCB, usr1
6503   121A       FD07                         SBRC      _ACCB, 7
6504   121B       CFDE                         RJMP      SYSTEM._L0450
6505   121C            SYSTEM._L0447:
6506   121C            SYSTEM._L0452:
6507   121C       911F                         POP       _ACCA
6508   121D       BF1F                         OUT       SREG, _ACCA
6509   121E       911F                         POP       _ACCA
6510   121F       910F                         POP       _ACCB
6511   1220       91FF                         POP       _ACCCHI
6512   1221       91EF                         POP       _ACCCLO
6513   1222       9518                         RETI
6514   1223            
6515   1223            
6516   1223                                    ; ============ Library ============
6517   1223            
6518   1223            SYSTEM.SERINP_TO:
6519   1223            SYSTEM.SERINP_TO1:
6520   1223       8118                         LDD       _ACCA, Y+000h
6521   1224   93100101                         STS       _RXTIMEOUT, _ACCA
6522   1226            SYSTEM._L0453:
6523   1226       D02C                         RCALL     SYSTEM.SERSTAT
6524   1227       2311                         TST       _ACCA
6525   1228       F429                         BRNE      SYSTEM._L0454
6526   1229   91100101                         LDS       _ACCA, _RXTIMEOUT
6527   122B       2311                         TST       _ACCA
6528   122C       F7C9                         BRNE      SYSTEM._L0453
6529   122D       9508                         RET
6530   122E            SYSTEM._L0454:
6531   122E       D007                         RCALL     SYSTEM.SERINP
6532   122F       81E9                         LDD       _ACCCLO, Y+001h
6533   1230       81FA                         LDD       _ACCCHI, Y+002h
6534   1231       9311                         ST        Z+, _ACCA
6535   1232       83FA                         STD       Y+002h, _ACCCHI
6536   1233       83E9                         STD       Y+001h, _ACCCLO
6537   1234       EF1F                         SER       _ACCA
6538   1235       9508                         RET
6539   1236            
6540   1236            SYSTEM.SERINP:
6541   1236            SYSTEM.SERINP1:
6542   1236            SYSTEM._L0455:
6543   1236   91100104                         LDS       _ACCA, _RXCOUNT
6544   1238       2311                         TST       _ACCA
6545   1239       F3E1                         BREQ      SYSTEM._L0455
6546   123A   91000103                         LDS       _ACCB, _RXOUTP
6547   123C       2711                         CLR       _ACCA
6548   123D       E0E5                         LDI       _ACCCLO, _RXBUFF AND 0FFh
6549   123E       E0F1                         LDI       _ACCCHI, _RXBUFF SHRB 8
6550   123F       0FE0                         ADD       _ACCCLO, _ACCB
6551   1240       1FF1                         ADC       _ACCCHI, _ACCA
6552   1241       8110                         LD        _ACCA, Z
6553   1242       94F8                         CLI
6554   1243   91E00104                         LDS       _ACCCLO, _RXCOUNT
6555   1245       95EA                         DEC       _ACCCLO
6556   1246   93E00104                         STS       _RXCOUNT, _ACCCLO
6557   1248       FC47                         SBRC      Flags, IntFlag
6558   1249       9478                         SEI
6559   124A   91000103                         LDS       _ACCB, _RXOUTP
6560   124C       9503                         INC       _ACCB
6561   124D       3200                         CPI       _ACCB, 32
6562   124E       F409                         BRNE      SYSTEM._L0456
6563   124F       2700                         CLR       _ACCB
6564   1250            SYSTEM._L0456:
6565   1250   93000103                         STS       _RXOUTP, _ACCB
6566   1252       9508                         RET
6567   1253            
6568   1253            SYSTEM.SERSTAT:
6569   1253            SYSTEM.SERSTAT1:
6570   1253       2711                         CLR       _ACCA
6571   1254   91000104                         LDS       _ACCB, _RXCOUNT
6572   1256       2300                         TST       _ACCB
6573   1257       F009                         BREQ      SYSTEM._L0461
6574   1258       9510                         COM       _ACCA
6575   1259            SYSTEM._L0461:
6576   1259       9508                         RET
6577   125A            
6578   125A            SYSTEM.SEROUT:
6579   125A            SYSTEM.SEROUT1:
6580   125A            SYSTEM._L0465:
6581   125A   91000127                         LDS       _ACCB, _TXCOUNT
6582   125C       3200                         CPI       _ACCB, 32
6583   125D       F3E1                         BREQ      SYSTEM._L0465
6584   125E       94F8                         CLI
6585   125F   91000125                         LDS       _ACCB, _TXINP
6586   1261       E2E8                         LDI       _ACCCLO, _TXBUFF AND 0FFh
6587   1262       E0F1                         LDI       _ACCCHI, _TXBUFF SHRB 8
6588   1263       0FE0                         ADD       _ACCCLO, _ACCB
6589   1264       2700                         CLR       _ACCB
6590   1265       1FF0                         ADC       _ACCCHI, _ACCB
6591   1266       8310                         ST        Z, _ACCA
6592   1267   91000127                         LDS       _ACCB, _TXCOUNT
6593   1269       9503                         INC       _ACCB
6594   126A   93000127                         STS       _TXCOUNT, _ACCB
6595   126C   91000125                         LDS       _ACCB, _TXINP
6596   126E       9503                         INC       _ACCB
6597   126F       3200                         CPI       _ACCB, 32
6598   1270       F409                         BRNE      SYSTEM._L0466
6599   1271       2700                         CLR       _ACCB
6600   1272            SYSTEM._L0466:
6601   1272   93000125                         STS       _TXINP, _ACCB
6602   1274   910000C1                         LDS       _ACCB, ucr1
6603   1276       6200                         SBR       _ACCB, 20h
6604   1277   930000C1                         STS       ucr1, _ACCB
6605   1279       FC47                         SBRC      Flags, IntFlag
6606   127A       9478                         SEI
6607   127B       9508                         RET
6608   127C            
6609   127C            
6610   127C            SYSTEM.MDELAY:
6611   127C                                    .DEB      DEBdelay
6612   127C       01A8                         MOVW      _ACCDLO, _ACCB
6613   127D       2711                         CLR       _ACCA
6614   127E       1741                         CP        _ACCDLO, _ACCA
6615   127F       0751                         CPC       _ACCDHI, _ACCA
6616   1280       F049                         BREQ      SYSTEM.MDELAY3
6617   1281            SYSTEM.MDELAY1:
6618   1281       E70A                         LDI       _ACCB, 00C7Ah AND 0FFh
6619   1282       E01C                         LDI       _ACCA, 00C7Ah SHRB 8
6620   1283            SYSTEM.MDELAY2:
6621   1283       5001                         SUBI      _ACCB, 001h
6622   1284       4010                         SBCI      _ACCA, 000h
6623   1285       0000                         NOP
6624   1286       F7E1                         BRNE      SYSTEM.MDELAY2
6625   1287       5041                         SUBI      _ACCDLO, 001h
6626   1288       4050                         SBCI      _ACCDHI, 000h
6627   1289       F7B9                         BRNE      SYSTEM.MDELAY1
6628   128A            SYSTEM.MDELAY3:
6629   128A       9508                         RET
6630   128B            
6631   128B            SYSTEM.UDELAY:
6632   128B       2311                         TST       _ACCA
6633   128C       F031                         BREQ      SYSTEM.UDELAY3
6634   128D            SYSTEM.UDELAY1:
6635   128D       E206                         LDI       _ACCB, 00026h AND 0FFh
6636   128E            SYSTEM.UDELAY2:
6637   128E       950A                         DEC       _ACCB
6638   128F       0000                         NOP
6639   1290       F7E9                         BRNE      SYSTEM.UDELAY2
6640   1291       951A                         DEC       _ACCA
6641   1292       F7D1                         BRNE      SYSTEM.UDELAY1
6642   1293            SYSTEM.UDELAY3:
6643   1293       9508                         RET
6644   1294            
6645   1294            SYSTEM.BlockCopyC:
6646   1294            SYSTEM._L0470:
6647   1294       5021                         SUBI      _ACCALO, 001h
6648   1295       4030                         SBCI      _ACCAHI, 000h
6649   1296       F018                         BRCS      SYSTEM._L0471
6650   1297       9111                         LD        _ACCA, Z+
6651   1298       931D                         ST        X+, _ACCA
6652   1299       CFFA                         RJMP      SYSTEM._L0470
6653   129A            SYSTEM._L0471:
6654   129A       9508                         RET
6655   129B            
6656   129B            SYSTEM._EEpWaitReady:
6657   129B       FC47                         SBRC      Flags, IntFlag
6658   129C       9478                         SEI
6659   129D       99F9                         SBIC      eecr, 1
6660   129E       CFFC                         RJMP      SYSTEM._EEpWaitReady
6661   129F            
6662   129F       94F8                         CLI
6663   12A0       99F9                         SBIC      eecr, 1
6664   12A1       CFF9                         RJMP      SYSTEM._EEpWaitReady
6665   12A2            
6666   12A2       9508                         RET
6667   12A3            
6668   12A3            SYSTEM.WriteEEp8:
6669   12A3       DFF7                         RCALL     SYSTEM._EEpWaitReady
6670   12A4       934F                         PUSH      _ACCDLO
6671   12A5       BDE1                         OUT       eearl, _ACCCLO
6672   12A6       BDF2                         OUT       eearh, _ACCCHI
6673   12A7       9AF8                         SBI       eecr, 0
6674   12A8       0000                         NOP
6675   12A9       B540                         IN        _ACCDLO, eedr
6676   12AA       1714                         CP        _ACCA, _ACCDLO
6677   12AB       F019                         BREQ      SYSTEM._L0472
6678   12AC       BD10                         OUT       eedr, _ACCA
6679   12AD       9AFA                         SBI       eecr, 2
6680   12AE       9AF9                         SBI       eecr, 1
6681   12AF            SYSTEM._L0472:
6682   12AF       914F                         POP       _ACCDLO
6683   12B0       FC47                         SBRC      Flags, IntFlag
6684   12B1       9478                         SEI
6685   12B2       9508                         RET
6686   12B3            
6687   12B3            SYSTEM._WriteEEp32:
6688   12B3       2F1A                         MOV       _ACCA, _ACCBLO
6689   12B4       DFEE                         RCALL     SYSTEM.WriteEEp8
6690   12B5       2F1B                         MOV       _ACCA, _ACCBHI
6691   12B6       9631                         ADIW      _ACCCLO, 01h
6692   12B7       DFEB                         RCALL     SYSTEM.WriteEEp8
6693   12B8       2F12                         MOV       _ACCA, _ACCALO
6694   12B9       9631                         ADIW      _ACCCLO, 01h
6695   12BA       DFE8                         RCALL     SYSTEM.WriteEEp8
6696   12BB       2F13                         MOV       _ACCA, _ACCAHI
6697   12BC       9631                         ADIW      _ACCCLO, 01h
6698   12BD       DFE5                         RCALL     SYSTEM.WriteEEp8
6699   12BE       9508                         RET
6700   12BF            
6701   12BF            SYSTEM.ReadEEp8:
6702   12BF       DFDB                         RCALL     SYSTEM._EEpWaitReady
6703   12C0       BDE1                         OUT       eearl, _ACCCLO
6704   12C1       BDF2                         OUT       eearh, _ACCCHI
6705   12C2       9AF8                         SBI       eecr, 0
6706   12C3       0000                         NOP
6707   12C4       B510                         IN        _ACCA, eedr
6708   12C5       FC47                         SBRC      Flags, IntFlag
6709   12C6       9478                         SEI
6710   12C7       9508                         RET
6711   12C8            
6712   12C8            SYSTEM._ReadEEp32:
6713   12C8   940E12BF                         CALL      SYSTEM.ReadEEp8
6714   12CA       2F01                         MOV       _ACCB, _ACCA
6715   12CB       9631                         ADIW      _ACCCLO, 01h
6716   12CC       DFF2                         RCALL     SYSTEM.ReadEEp8
6717   12CD       2FA1                         MOV       _ACCBLO, _ACCA
6718   12CE       9631                         ADIW      _ACCCLO, 01h
6719   12CF       DFEF                         RCALL     SYSTEM.ReadEEp8
6720   12D0       2F21                         MOV       _ACCALO, _ACCA
6721   12D1       9631                         ADIW      _ACCCLO, 01h
6722   12D2       DFEC                         RCALL     SYSTEM.ReadEEp8
6723   12D3       2F31                         MOV       _ACCAHI, _ACCA
6724   12D4       2F1A                         MOV       _ACCA, _ACCBLO
6725   12D5       9508                         RET
6726   12D6            
6727   12D6            SYSTEM.StringAppend:
6728   12D6       913F                         POP       _ACCAHI
6729   12D7       912F                         POP       _ACCALO
6730   12D8       910F                         POP       _ACCB
6731   12D9       91BF                         POP       _ACCBHI
6732   12DA       91AF                         POP       _ACCBLO
6733   12DB       91FF                         POP       _ACCCHI
6734   12DC       91EF                         POP       _ACCCLO
6735   12DD       932F                         PUSH      _ACCALO
6736   12DE       933F                         PUSH      _ACCAHI
6737   12DF       2F89                         MOV       _ACCFLO, _ACCFHI
6738   12E0       7180                         ANDI      _ACCFLO, 10h
6739   12E1       F001                         BREQ      SYSTEM._L0473
6740   12E2            SYSTEM._L0473:
6741   12E2       911C                         LD        _ACCA, X
6742   12E3       9513                         INC       _ACCA
6743   12E4       C009                         RJMP      SYSTEM._StrIns
6744   12E5            
6745   12E5            SYSTEM.StringInsert:
6746   12E5       913F                         POP       _ACCAHI
6747   12E6       912F                         POP       _ACCALO
6748   12E7       910F                         POP       _ACCB
6749   12E8       91BF                         POP       _ACCBHI
6750   12E9       91AF                         POP       _ACCBLO
6751   12EA       91FF                         POP       _ACCCHI
6752   12EB       91EF                         POP       _ACCCLO
6753   12EC       932F                         PUSH      _ACCALO
6754   12ED       933F                         PUSH      _ACCAHI
6755   12EE            SYSTEM._StrIns:
6756   12EE       2F89                         MOV       _ACCFLO, _ACCFHI
6757   12EF       7083                         ANDI      _ACCFLO, 3
6758   12F0       2388                         TST       _ACCFLO
6759   12F1       F059                         BREQ      SYSTEM._L0474
6760   12F2       9586                         LSR       _ACCFLO
6761   12F3       F439                         BRNE      SYSTEM._L0476
6762   12F4       931F                         PUSH      _ACCA
6763   12F5   940E12BF                         CALL      SYSTEM.ReadEEp8
6764   12F7       2F31                         MOV       _ACCAHI, _ACCA
6765   12F8       911F                         POP       _ACCA
6766   12F9       9631                         ADIW      _ACCCLO, 01h
6767   12FA       C003                         RJMP      SYSTEM._L0475
6768   12FB            SYSTEM._L0476:
6769   12FB       9135                         LPM       _ACCAHI, Z+
6770   12FC       C001                         RJMP      SYSTEM._L0475
6771   12FD            SYSTEM._L0474:
6772   12FD       9131                         LD        _ACCAHI, Z+
6773   12FE            SYSTEM._L0475:
6774   12FE       2333                         TST       _ACCAHI
6775   12FF       F031                         BREQ      SYSTEM._L0483
6776   1300       2F89                         MOV       _ACCFLO, _ACCFHI
6777   1301       7180                         ANDI      _ACCFLO, 10h
6778   1302       F001                         BREQ      SYSTEM._L0478
6779   1303            SYSTEM._L0478:
6780   1303       912C                         LD        _ACCALO, X
6781   1304            SYSTEM._L0480:
6782   1304       1701                         CP        _ACCB, _ACCA
6783   1305       F408                         BRCC      SYSTEM._L0482
6784   1306            SYSTEM._L0483:
6785   1306       9508                         RET
6786   1307            SYSTEM._L0482:
6787   1307       2F40                         MOV       _ACCDLO, _ACCB
6788   1308       1B41                         SUB       _ACCDLO, _ACCA
6789   1309       2F54                         MOV       _ACCDHI, _ACCDLO
6790   130A       1B43                         SUB       _ACCDLO, _ACCAHI
6791   130B       F158                         BRCS      SYSTEM._L0488
6792   130C       1721                         CP        _ACCALO, _ACCA
6793   130D       F430                         BRCC      SYSTEM._L0485
6794   130E       2F63                         MOV       _ACCELO, _ACCAHI
6795   130F       0F62                         ADD       _ACCELO, _ACCALO
6796   1310       1706                         CP        _ACCB, _ACCELO
6797   1311       F008                         BRCS      SYSTEM._L0484
6798   1312       2F06                         MOV       _ACCB, _ACCELO
6799   1313            SYSTEM._L0484:
6800   1313       C023                         RJMP      SYSTEM._L0488
6801   1314            SYSTEM._L0485:
6802   1314       93AF                         PUSH      _ACCBLO
6803   1315       93BF                         PUSH      _ACCBHI
6804   1316       93EF                         PUSH      _ACCCLO
6805   1317       93FF                         PUSH      _ACCCHI
6806   1318       2F52                         MOV       _ACCDHI, _ACCALO
6807   1319       1B51                         SUB       _ACCDHI, _ACCA
6808   131A       1754                         CP        _ACCDHI, _ACCDLO
6809   131B       F408                         BRCC      SYSTEM._L0486
6810   131C       2F45                         MOV       _ACCDLO, _ACCDHI
6811   131D            SYSTEM._L0486:
6812   131D       2755                         CLR       _ACCDHI
6813   131E       0FA1                         ADD       _ACCBLO, _ACCA
6814   131F       1FB5                         ADC       _ACCBHI, _ACCDHI
6815   1320       0FA4                         ADD       _ACCBLO, _ACCDLO
6816   1321       1FB5                         ADC       _ACCBHI, _ACCDHI
6817   1322       9611                         ADIW      _ACCBLO, 1
6818   1323       01FD                         MOVW      _ACCCLO, _ACCBLO
6819   1324       0FE3                         ADD       _ACCCLO, _ACCAHI
6820   1325       1FF5                         ADC       _ACCCHI, _ACCDHI
6821   1326       2F54                         MOV       _ACCDHI, _ACCDLO
6822   1327       9553                         INC       _ACCDHI
6823   1328       2F89                         MOV       _ACCFLO, _ACCFHI
6824   1329       7180                         ANDI      _ACCFLO, 10h
6825   132A       F001                         BREQ      SYSTEM._L0487
6826   132B            SYSTEM._L0487:
6827   132B       900E                         LD        _ACCGLO, -X
6828   132C       9202                         ST        -Z, _ACCGLO
6829   132D       955A                         DEC       _ACCDHI
6830   132E       F7E1                         BRNE     SYSTEM._L0487
6831   132F            SYSTEM._L0481:
6832   132F       91FF                         POP       _ACCCHI
6833   1330       91EF                         POP       _ACCCLO
6834   1331       91BF                         POP       _ACCBHI
6835   1332       91AF                         POP       _ACCBLO
6836   1333       2F01                         MOV       _ACCB, _ACCA
6837   1334       0F03                         ADD       _ACCB, _ACCAHI
6838   1335       0F04                         ADD       _ACCB, _ACCDLO
6839   1336       F411                         BRNE     SYSTEM._L0492
6840   1337            SYSTEM._L0488:
6841   1337       0F34                         ADD       _ACCAHI, _ACCDLO
6842   1338       9533                         INC       _ACCAHI
6843   1339            SYSTEM._L0492:
6844   1339       2F89                         MOV       _ACCFLO, _ACCFHI
6845   133A       7180                         ANDI      _ACCFLO, 10h
6846   133B       F001                         BREQ      SYSTEM._L0495
6847   133C            SYSTEM._L0495:
6848   133C       930C                         ST        X, _ACCB
6849   133D            SYSTEM._L0494:
6850   133D       2722                         CLR       _ACCALO
6851   133E       0FA1                         ADD       _ACCBLO, _ACCA
6852   133F       1FB2                         ADC       _ACCBHI, _ACCALO
6853   1340            SYSTEM._L0493:
6854   1340       2F89                         MOV       _ACCFLO, _ACCFHI
6855   1341       7083                         ANDI      _ACCFLO, 3
6856   1342       2388                         TST       _ACCFLO
6857   1343       F049                         BREQ      SYSTEM._L0496
6858   1344       9586                         LSR       _ACCFLO
6859   1345       F429                         BRNE      SYSTEM._L0498
6860   1346   940E12BF                         CALL      SYSTEM.ReadEEp8
6861   1348       2E01                         MOV       _ACCGLO, _ACCA
6862   1349       9631                         ADIW      _ACCCLO, 01h
6863   134A       C003                         RJMP      SYSTEM._L0497
6864   134B            SYSTEM._L0498:
6865   134B       9005                         LPM       _ACCGLO, Z+
6866   134C       C001                         RJMP      SYSTEM._L0497
6867   134D            SYSTEM._L0496:
6868   134D       9001                         LD        _ACCGLO, Z+
6869   134E            SYSTEM._L0497:
6870   134E       2F89                         MOV       _ACCFLO, _ACCFHI
6871   134F       7180                         ANDI      _ACCFLO, 10h
6872   1350       F001                         BREQ      SYSTEM._L0499
6873   1351            SYSTEM._L0499:
6874   1351       920D                         ST        X+, _ACCGLO
6875   1352            SYSTEM._L0500:
6876   1352       953A                         DEC       _ACCAHI
6877   1353       F761                         BRNE     SYSTEM._L0493
6878   1354            SYSTEM._L0491:
6879   1354       9508                         RET
6880   1355            
6881   1355            SYSTEM.Str2Int:
6882   1355       2733                         CLR       _ACCAHI
6883   1356       2722                         CLR       _ACCALO
6884   1357       27BB                         CLR       _ACCBHI
6885   1358       27AA                         CLR       _ACCBLO
6886   1359       FA46                         BST       Flags, _EEPROM
6887   135A       F426                         BRTC      SYSTEM._L0505
6888   135B   940E12BF                         CALL      SYSTEM.ReadEEp8
6889   135D       9631                         ADIW      _ACCCLO, 01h
6890   135E       C001                         RJMP     SYSTEM._L0506
6891   135F            SYSTEM._L0505:
6892   135F       9111                         LD        _ACCA, Z+
6893   1360            SYSTEM._L0506:
6894   1360       2311                         TST       _ACCA
6895   1361       F419                         BRNE      SYSTEM._L0502
6896   1362            SYSTEM._L0501:
6897   1362       2711                         CLR       _ACCA
6898   1363       2700                         CLR       _ACCB
6899   1364       9508                         RET
6900   1365            
6901   1365            SYSTEM._L0502:
6902   1365       2F51                         MOV       _ACCDHI, _ACCA
6903   1366       2300                         TST       _ACCB
6904   1367       F011                         BREQ      SYSTEM._L0507
6905   1368       9553                         INC       _ACCDHI
6906   1369       C071                         RJMP      SYSTEM.Hex2Int
6907   136A            SYSTEM._L0507:
6908   136A       FA46                         BST       Flags, _EEPROM
6909   136B       F426                         BRTC      SYSTEM._L0508
6910   136C   940E12BF                         CALL      SYSTEM.ReadEEp8
6911   136E       9631                         ADIW      _ACCCLO, 01h
6912   136F       C001                         RJMP     SYSTEM._L0509
6913   1370            SYSTEM._L0508:
6914   1370       9111                         LD        _ACCA, Z+
6915   1371            SYSTEM._L0509:
6916   1371       94E8                         CLT
6917   1372       F842                         BLD       Flags, _NEGATIVE
6918   1373       321D                         CPI       _ACCA, 02Dh
6919   1374       F461                         BRNE      SYSTEM._L0503
6920   1375       955A                         DEC       _ACCDHI
6921   1376       F359                         BREQ      SYSTEM._L0501
6922   1377       9468                         SET
6923   1378       F842                         BLD       Flags, _NEGATIVE
6924   1379       FA46                         BST       Flags, _EEPROM
6925   137A       F426                         BRTC      SYSTEM._L0510
6926   137B   940E12BF                         CALL      SYSTEM.ReadEEp8
6927   137D       9631                         ADIW      _ACCCLO, 01h
6928   137E       C001                         RJMP     SYSTEM._L0511
6929   137F            SYSTEM._L0510:
6930   137F       9111                         LD        _ACCA, Z+
6931   1380            SYSTEM._L0511:
6932   1380       C011                         RJMP      SYSTEM.Dec2Int
6933   1381            SYSTEM._L0503:
6934   1381       321B                         CPI       _ACCA, 02Bh
6935   1382       F461                         BRNE      SYSTEM._L0504
6936   1383       955A                         DEC       _ACCDHI
6937   1384       F2E9                         BREQ      SYSTEM._L0501
6938   1385       94E8                         CLT
6939   1386       F842                         BLD       Flags, _NEGATIVE
6940   1387       FA46                         BST       Flags, _EEPROM
6941   1388       F426                         BRTC      SYSTEM._L0512
6942   1389   940E12BF                         CALL      SYSTEM.ReadEEp8
6943   138B       9631                         ADIW      _ACCCLO, 01h
6944   138C       C001                         RJMP     SYSTEM._L0513
6945   138D            SYSTEM._L0512:
6946   138D       9111                         LD        _ACCA, Z+
6947   138E            SYSTEM._L0513:
6948   138E       C003                         RJMP      SYSTEM.Dec2Int
6949   138F            SYSTEM._L0504:
6950   138F       3214                         CPI       _ACCA, 024h
6951   1390       F409                         BRNE      SYSTEM.Dec2Int
6952   1391       C049                         RJMP      SYSTEM.Hex2Int
6953   1392            SYSTEM.Dec2Int:
6954   1392       2F05                         MOV       _ACCB, _ACCDHI
6955   1393       950A                         DEC       _ACCB
6956   1394       F26A                         BRMI      SYSTEM._L0501
6957   1395       2755                         CLR       _ACCDHI
6958   1396       2777                         CLR       _ACCEHI
6959   1397       2799                         CLR       _ACCFHI
6960   1398       2788                         CLR       _ACCFLO
6961   1399       930F                         PUSH      _ACCB
6962   139A       C008                         RJMP      SYSTEM.Dec2Int1
6963   139B            SYSTEM._L0514:
6964   139B       930F                         PUSH      _ACCB
6965   139C       FA46                         BST       Flags, _EEPROM
6966   139D       F426                         BRTC      SYSTEM._L0517
6967   139E   940E12BF                         CALL      SYSTEM.ReadEEp8
6968   13A0       9631                         ADIW      _ACCCLO, 01h
6969   13A1       C001                         RJMP     SYSTEM._L0518
6970   13A2            SYSTEM._L0517:
6971   13A2       9111                         LD        _ACCA, Z+
6972   13A3            SYSTEM._L0518:
6973   13A3            SYSTEM.Dec2Int1:
6974   13A3       3310                         CPI       _ACCA, 030h
6975   13A4       F110                         BRCS      SYSTEM.Str2Ierr1
6976   13A5       331A                         CPI       _ACCA, 03Ah
6977   13A6       F500                         BRCC      SYSTEM.Str2Ierr1
6978   13A7       5310                         SUBI      _ACCA, 030h
6979   13A8       2F41                         MOV       _ACCDLO, _ACCA
6980   13A9       018D                         MOVW      _ACCB, _ACCBLO
6981   13AA       0F00                         LSL       _ACCB
6982   13AB       1F11                         ROL       _ACCA
6983   13AC       1F77                         ROL       _ACCEHI
6984   13AD       1F99                         ROL       _ACCFHI
6985   13AE       0F00                         LSL       _ACCB
6986   13AF       1F11                         ROL       _ACCA
6987   13B0       1F77                         ROL       _ACCEHI
6988   13B1       1F99                         ROL       _ACCFHI
6989   13B2       0F0A                         ADD       _ACCB, _ACCBLO
6990   13B3       1F1B                         ADC       _ACCA, _ACCBHI
6991   13B4       1F78                         ADC       _ACCEHI, _ACCFLO
6992   13B5       1F98                         ADC       _ACCFHI, _ACCFLO
6993   13B6       0F72                         ADD       _ACCEHI, _ACCALO
6994   13B7       1F93                         ADC       _ACCFHI, _ACCAHI
6995   13B8       0F00                         LSL       _ACCB
6996   13B9       1F11                         ROL       _ACCA
6997   13BA       1F77                         ROL       _ACCEHI
6998   13BB       1F99                         ROL       _ACCFHI
6999   13BC       0F04                         ADD       _ACCB, _ACCDLO
7000   13BD       1F15                         ADC       _ACCA, _ACCDHI
7001   13BE       1F78                         ADC       _ACCEHI, _ACCFLO
7002   13BF       1F98                         ADC       _ACCFHI, _ACCFLO
7003   13C0       01D8                         MOVW      _ACCBLO, _ACCB
7004   13C1       2F27                         MOV       _ACCALO, _ACCEHI
7005   13C2       2F39                         MOV       _ACCAHI, _ACCFHI
7006   13C3       910F                         POP       _ACCB
7007   13C4       950A                         DEC       _ACCB
7008   13C5       F04A                         BRMI      SYSTEM.Str2Iex
7009   13C6       CFD4                         RJMP      SYSTEM._L0514
7010   13C7            SYSTEM.Str2Ierr1:
7011   13C7       910F                         POP       _ACCB
7012   13C8            SYSTEM.Str2Ierr:
7013   13C8       9468                         SET
7014   13C9       F841                         BLD       Flags, _ERRFLAG
7015   13CA       2711                         CLR       _ACCA
7016   13CB       2700                         CLR       _ACCB
7017   13CC       2733                         CLR       _ACCAHI
7018   13CD       2722                         CLR       _ACCALO
7019   13CE       9508                         RET
7020   13CF            
7021   13CF            SYSTEM.Str2Iex:
7022   13CF       018D                         MOVW      _ACCB, _ACCBLO
7023   13D0       FA42                         BST       Flags, _NEGATIVE
7024   13D1       F446                         BRTC      SYSTEM._L0519
7025   13D2       5001                         SUBI      _ACCB, 01h
7026   13D3       4010                         SBCI      _ACCA, 00h
7027   13D4       4020                         SBCI      _ACCALO, 00h
7028   13D5       4030                         SBCI      _ACCAHI, 00h
7029   13D6       9520                         COM       _ACCALO
7030   13D7       9530                         COM       _ACCAHI
7031   13D8       9510                         COM       _ACCA
7032   13D9       9500                         COM       _ACCB
7033   13DA            SYSTEM._L0519:
7034   13DA       9508                         RET
7035   13DB            
7036   13DB            SYSTEM.Hex2Int:
7037   13DB       94E8                         CLT
7038   13DC       F842                         BLD       Flags, _NEGATIVE
7039   13DD       955A                         DEC       _ACCDHI
7040   13DE       F3D9                         BREQ      SYSTEM._L0519
7041   13DF       3059                         CPI       _ACCDHI, 009h
7042   13E0       F738                         BRSH      SYSTEM.Str2Ierr
7043   13E1            SYSTEM._L0520:
7044   13E1       FA46                         BST       Flags, _EEPROM
7045   13E2       F426                         BRTC      SYSTEM._L0524
7046   13E3   940E12BF                         CALL      SYSTEM.ReadEEp8
7047   13E5       9631                         ADIW      _ACCCLO, 01h
7048   13E6       C001                         RJMP     SYSTEM._L0525
7049   13E7            SYSTEM._L0524:
7050   13E7       9111                         LD        _ACCA, Z+
7051   13E8            SYSTEM._L0525:
7052   13E8       3611                         CPI       _ACCA, 061h
7053   13E9       F008                         BRLO      SYSTEM._L0521
7054   13EA       5210                         SUBI      _ACCA, 020h
7055   13EB            SYSTEM._L0521:
7056   13EB       3310                         CPI       _ACCA, 030h
7057   13EC       F2D8                         BRLO      SYSTEM.Str2Ierr
7058   13ED       331A                         CPI       _ACCA, 03Ah
7059   13EE       F028                         BRLO      SYSTEM._L0522
7060   13EF       3411                         CPI       _ACCA, 041h
7061   13F0       F2B8                         BRLO      SYSTEM.Str2Ierr
7062   13F1       3417                         CPI       _ACCA, 047h
7063   13F2       F6A8                         BRSH      SYSTEM.Str2Ierr
7064   13F3       5F17                         SUBI      _ACCA, -9 AND 0FFh
7065   13F4            SYSTEM._L0522:
7066   13F4       701F                         ANDI      _ACCA, 00Fh
7067   13F5       E004                         LDI       _ACCB, 4
7068   13F6            SYSTEM._L0523:
7069   13F6       0FAA                         LSL       _ACCBLO
7070   13F7       1FBB                         ROL       _ACCBHI
7071   13F8       1F22                         ROL       _ACCALO
7072   13F9       1F33                         ROL       _ACCAHI
7073   13FA       950A                         DEC       _ACCB
7074   13FB       F7D1                         BRNE      SYSTEM._L0523
7075   13FC       2BA1                         OR        _ACCBLO, _ACCA
7076   13FD       955A                         DEC       _ACCDHI
7077   13FE       F711                         BRNE      SYSTEM._L0520
7078   13FF       CFCF                         RJMP      SYSTEM.Str2Iex
7079   1400            SYSTEM.PosChInVarStr:
7080   1400       2711                         CLR       _ACCA
7081   1401       81B0                         LD        _ACCBHI, Z
7082   1402       23BB                         TST       _ACCBHI
7083   1403       F089                         BREQ      SYSTEM._L0527
7084   1404       2366                         TST       _ACCELO
7085   1405       F409                         BRNE      SYSTEM._L0526
7086   1406       9563                         INC       _ACCELO
7087   1407            SYSTEM._L0526:
7088   1407       17B6                         CP        _ACCBHI, _ACCELO
7089   1408       F060                         BRCS      SYSTEM._L0527
7090   1409       0FE6                         ADD       _ACCCLO, _ACCELO
7091   140A       1FF1                         ADC       _ACCCHI, _ACCA
7092   140B       956A                         DEC       _ACCELO
7093   140C       1BB6                         SUB       _ACCBHI, _ACCELO
7094   140D       2F16                         MOV       _ACCA, _ACCELO
7095   140E            SYSTEM._L0528:
7096   140E       9513                         INC       _ACCA
7097   140F       91A1                         LD        _ACCBLO, Z+
7098   1410       170A                         CP        _ACCB, _ACCBLO
7099   1411       F019                         BREQ      SYSTEM._L0527
7100   1412       95BA                         DEC       _ACCBHI
7101   1413       F7D1                         BRNE      SYSTEM._L0528
7102   1414       2711                         CLR       _ACCA
7103   1415            SYSTEM._L0527:
7104   1415       9508                         RET
7105   1416            
7106   1416            
7107   1416            SYSTEM.UpperCaseStr:
7108   1416       9111                         LD        _ACCA, Z+
7109   1417       2311                         TST       _ACCA
7110   1418       F059                         BREQ      SYSTEM._L0530
7111   1419       2FB1                         MOV       _ACCBHI, _ACCA
7112   141A            SYSTEM._L0529:
7113   141A       9111                         LD        _ACCA, Z+
7114   141B       3611                         CPI       _ACCA, 061h
7115   141C       F018                         BRCS      SYSTEM._L0531
7116   141D       371B                         CPI       _ACCA, 07Bh
7117   141E       F408                         BRCC      SYSTEM._L0531
7118   141F       7D1F                         ANDI      _ACCA, 0DFh
7119   1420            SYSTEM._L0531:
7120   1420   940E1701                         CALL      SYSTEM.Char2Str
7121   1422       95BA                         DEC       _ACCBHI
7122   1423       F7B1                         BRNE      SYSTEM._L0529
7123   1424            SYSTEM._L0530:
7124   1424       9508                         RET
7125   1425            
7126   1425            
7127   1425            SYSTEM.StrCopyV:
7128   1425       2311                         TST       _ACCA
7129   1426       F089                         BREQ      SYSTEM._L0534
7130   1427       81B0                         LD        _ACCBHI, Z
7131   1428       23BB                         TST       _ACCBHI
7132   1429       F071                         BREQ      SYSTEM._L0534
7133   142A       1BB0                         SUB       _ACCBHI, _ACCB
7134   142B       F060                         BRCS      SYSTEM._L0534
7135   142C       95B3                         INC       _ACCBHI
7136   142D       27AA                         CLR       _ACCBLO
7137   142E       0FE0                         ADD       _ACCCLO, _ACCB
7138   142F       1FFA                         ADC       _ACCCHI, _ACCBLO
7139   1430       17B1                         CP        _ACCBHI, _ACCA
7140   1431       F008                         BRCS      SYSTEM._L0533
7141   1432       2FB1                         MOV       _ACCBHI, _ACCA
7142   1433            SYSTEM._L0533:
7143   1433       9111                         LD        _ACCA, Z+
7144   1434   940E1701                         CALL      SYSTEM.Char2Str
7145   1436       95BA                         DEC       _ACCBHI
7146   1437       F7D9                         BRNE      SYSTEM._L0533
7147   1438            SYSTEM._L0534:
7148   1438       9508                         RET
7149   1439            
7150   1439            
7151   1439            SYSTEM.StrConst2Str:
7152   1439       91B5                         LPM       _ACCBHI, Z+
7153   143A       23BB                         TST       _ACCBHI
7154   143B       F029                         BREQ      SYSTEM._L0536
7155   143C            SYSTEM.StrConst2StrPart:
7156   143C            SYSTEM._L0535:
7157   143C       9115                         LPM      _ACCA, Z+
7158   143D   940E1701                         CALL      SYSTEM.Char2Str
7159   143F       95BA                         DEC       _ACCBHI
7160   1440       F7D9                         BRNE      SYSTEM._L0535
7161   1441            SYSTEM._L0536:
7162   1441       9508                         RET
7163   1442            
7164   1442            
7165   1442            SYSTEM.StrVar2Str:
7166   1442       9111                         LD        _ACCA, Z+
7167   1443       2311                         TST       _ACCA
7168   1444       F031                         BREQ      SYSTEM._L0538
7169   1445       2FB1                         MOV       _ACCBHI, _ACCA
7170   1446            SYSTEM._L0537:
7171   1446       9111                         LD        _ACCA, Z+
7172   1447   940E1701                         CALL      SYSTEM.Char2Str
7173   1449       95BA                         DEC       _ACCBHI
7174   144A       F7D9                         BRNE      SYSTEM._L0537
7175   144B            SYSTEM._L0538:
7176   144B       9508                         RET
7177   144C            
7178   144C            
7179   144C            SYSTEM.Byte2Str:
7180   144C       93CF                         PUSH      _FRAMEPTR
7181   144D       93DF                         PUSH      _FPTRHI
7182   144E       9726                         SBIW      _FRAMEPTR, 6
7183   144F       8509                         LDD       _ACCB, Y+9
7184   1450       2711                         CLR       _ACCA
7185   1451       0198                         MOVW      _ACCALO, _ACCB
7186   1452       700F                         ANDI      _ACCB, 0Fh
7187   1453       9522                         SWAP      _ACCALO
7188   1454       702F                         ANDI      _ACCALO, 0Fh
7189   1455       01B9                         MOVW      _ACCELO, _ACCALO
7190   1456       0F66                         LSL       _ACCELO
7191   1457       1F77                         ROL       _ACCEHI
7192   1458       0F66                         LSL       _ACCELO
7193   1459       1F77                         ROL       _ACCEHI
7194   145A       01A8                         MOVW      _ACCDLO, _ACCB
7195   145B       1B46                         SUB       _ACCDLO, _ACCELO
7196   145C       0B57                         SBC       _ACCDHI, _ACCEHI
7197   145D       5144                         SUBI      _ACCDLO, 20 AND 0FFh
7198   145E       4050                         SBCI      _ACCDHI, 0
7199   145F       8348                         STD       Y+0, _ACCDLO
7200   1460       8359                         STD       Y+1, _ACCDHI
7201   1461       01A9                         MOVW      _ACCDLO, _ACCALO
7202   1462       0F44                         LSL       _ACCDLO
7203   1463       1F55                         ROL       _ACCDHI
7204   1464       5246                         SUBI      _ACCDLO, 38 AND 0FFh
7205   1465       4050                         SBCI      _ACCDHI, 0
7206   1466       834A                         STD       Y+2, _ACCDLO
7207   1467       835B                         STD       Y+3, _ACCDHI
7208   1468       E044                         LDI       _ACCDLO, 4
7209   1469       834C                         STD       Y+4, _ACCDLO
7210   146A       831D                         STD       Y+5, _ACCA
7211   146B       01FE                         MOVW      _ACCCLO, _FRAMEPTR
7212   146C       E012                         LDI       _ACCA, 2
7213   146D       8180                         LDD       R24, Z+0
7214   146E       8191                         LDD       R25, Z+1
7215   146F       81A2                         LDD       R26, Z+2
7216   1470       81B3                         LDD       R27, Z+3
7217   1471            SYSTEM._cv8_1:
7218   1471       2399                         TST       R25
7219   1472       F41A                         BRPL      SYSTEM._cv8_2
7220   1473       960A                         ADIW      R24, 10
7221   1474       9711                         SBIW      R26, 1
7222   1475       CFFB                         RJMP      SYSTEM._cv8_1
7223   1476            SYSTEM._cv8_2:
7224   1476       9381                         ST        Z+, R24
7225   1477       9391                         ST        Z+, R25
7226   1478       01CD                         MOVW      R24, R26
7227   1479       951A                         DEC       _ACCA
7228   147A       F019                         BREQ      SYSTEM._cv8_X
7229   147B       81A2                         LDD       R26, Z+2
7230   147C       81B3                         LDD       R27, Z+3
7231   147D       CFF3                         RJMP      SYSTEM._cv8_1
7232   147E            SYSTEM._cv8_X:
7233   147E       9381                         ST        Z+, R24
7234   147F       9391                         ST        Z+, R25
7235   1480       8528                         LDD       _ACCALO, Y+8
7236   1481       813F                         LDD       _ACCAHI, Y+7
7237   1482       814E                         LDD       _ACCDLO, Y+6
7238   1483       E053                         LDI       _ACCDHI, 3
7239   1484       E080                         LDI       _ACCFLO, 0
7240   1485       01FE                         MOVW      _ACCCLO, _FRAMEPTR
7241   1486       01DE                         MOVW      _ACCBLO, _FRAMEPTR
7242   1487       961A                         ADIW      XL, 10
7243   1488       D12F                         RCALL     SYSTEM._B2STR
7244   1489       91DF                         POP       _FPTRHI
7245   148A       91CF                         POP       _FRAMEPTR
7246   148B       9508                         RET
7247   148C            
7248   148C            SYSTEM.Long2Str:
7249   148C       93CF                         PUSH      _FRAMEPTR
7250   148D       93DF                         PUSH      _FPTRHI
7251   148E       976C                         SBIW      _FRAMEPTR, 28
7252   148F       01DE                         MOVW      _ACCBLO, _FRAMEPTR
7253   1490       9654                         ADIW      XL, 20
7254   1491       01FE                         MOVW      _ACCCLO, _FRAMEPTR
7255   1492       FA54                         BST       Flags2, _F64StrInt
7256   1493       F016                         BRTS      SYSTEM._L0539
7257   1494       967F                         ADIW      ZL, 31
7258   1495       C001                         RJMP      SYSTEM._L0540
7259   1496            SYSTEM._L0539:
7260   1496       96B3                         ADIW      ZL, 35
7261   1497            SYSTEM._L0540:
7262   1497       2788                         CLR       _ACCFLO
7263   1498       FA45                         BST       Flags, _SIGN
7264   1499       F49E                         BRTC      SYSTEM._cv32_0
7265   149A       8133                         LDD       _ACCAHI, Z+3
7266   149B       2333                         TST       _ACCAHI
7267   149C       F482                         BRPL      SYSTEM._cv32_0
7268   149D       E28D                         LDI       _ACCFLO, 2Dh
7269   149E       8122                         LDD       _ACCALO, Z+2
7270   149F       8111                         LDD       _ACCA, Z+1
7271   14A0       8100                         LDD       _ACCB, Z+0
7272   14A1       5001                         SUBI      _ACCB, 01h
7273   14A2       4010                         SBCI      _ACCA, 00h
7274   14A3       4020                         SBCI      _ACCALO, 00h
7275   14A4       4030                         SBCI      _ACCAHI, 00h
7276   14A5       9500                         COM       _ACCB
7277   14A6       9510                         COM       _ACCA
7278   14A7       9520                         COM       _ACCALO
7279   14A8       9530                         COM       _ACCAHI
7280   14A9       8300                         STD       Z+0, _ACCB
7281   14AA       8311                         STD       Z+1, _ACCA
7282   14AB       8322                         STD       Z+2, _ACCALO
7283   14AC       8333                         STD       Z+3, _ACCAHI
7284   14AD            SYSTEM._cv32_0:
7285   14AD       FA42                         BST       Flags, _NEGATIVE
7286   14AE       F40E                         BRTC      SYSTEM._L0541
7287   14AF       E28D                         LDI       _ACCFLO, 2Dh
7288   14B0            SYSTEM._L0541:
7289   14B0       E024                         LDI       _ACCALO, 4
7290   14B1       938F                         PUSH      _ACCFLO
7291   14B2            SYSTEM._cv32_LP:
7292   14B2       8100                         LDD       _ACCB, Z+000h
7293   14B3       700F                         ANDI      _ACCB, 0fh
7294   14B4       930D                         ST        X+, _ACCB
7295   14B5       9101                         LD        _ACCB, Z+
7296   14B6       9502                         SWAP      _ACCB
7297   14B7       700F                         ANDI      _ACCB, 0fh
7298   14B8       930D                         ST        X+, _ACCB
7299   14B9       952A                         DEC       _ACCALO
7300   14BA       F7B9                         BRNE      SYSTEM._cv32_LP
7301   14BB       E0B0                         LDI       _ACCBHI, 0
7302   14BC       01FE                         MOVW      _ACCCLO, _FRAMEPTR
7303   14BD       9674                         ADIW      ZL, 20
7304   14BE       8161                         LDD       _ACCELO, Z+1
7305   14BF       E070                         LDI       _ACCEHI, 0
7306   14C0       8142                         LDD       _ACCDLO, Z+2
7307   14C1       0F64                         ADD       _ACCELO, _ACCDLO
7308   14C2       1F7B                         ADC       _ACCEHI, _ACCBHI
7309   14C3       8143                         LDD       _ACCDLO, Z+3
7310   14C4       0F64                         ADD       _ACCELO, _ACCDLO
7311   14C5       1F7B                         ADC       _ACCEHI, _ACCBHI
7312   14C6       8144                         LDD       _ACCDLO, Z+4
7313   14C7       0F64                         ADD       _ACCELO, _ACCDLO
7314   14C8       1F7B                         ADC       _ACCEHI, _ACCBHI
7315   14C9       8145                         LDD       _ACCDLO, Z+5
7316   14CA       0F64                         ADD       _ACCELO, _ACCDLO
7317   14CB       1F7B                         ADC       _ACCEHI, _ACCBHI
7318   14CC       8146                         LDD       _ACCDLO, Z+6
7319   14CD       0F64                         ADD       _ACCELO, _ACCDLO
7320   14CE       1F7B                         ADC       _ACCEHI, _ACCBHI
7321   14CF       8147                         LDD       _ACCDLO, Z+7
7322   14D0       0F64                         ADD       _ACCELO, _ACCDLO
7323   14D1       1F7B                         ADC       _ACCEHI, _ACCBHI
7324   14D2       0F66                         LSL       _ACCELO
7325   14D3       1F77                         ROL       _ACCEHI
7326   14D4       0F66                         LSL       _ACCELO
7327   14D5       1F77                         ROL       _ACCEHI
7328   14D6       8140                         LDD       _ACCDLO, Z+0
7329   14D7       2755                         CLR       _ACCDHI
7330   14D8       1B46                         SUB       _ACCDLO, _ACCELO
7331   14D9       0B57                         SBC       _ACCDHI, _ACCEHI
7332   14DA       5144                         SUBI      _ACCDLO, 20 AND 0FFh
7333   14DB       4050                         SBCI      _ACCDHI, 0
7334   14DC       8348                         STD       Y+0, _ACCDLO
7335   14DD       8359                         STD       Y+1, _ACCDHI
7336   14DE       8161                         LDD       _ACCELO, Z+1
7337   14DF       2777                         CLR       _ACCEHI
7338   14E0       8146                         LDD       _ACCDLO, Z+6
7339   14E1       0F64                         ADD       _ACCELO, _ACCDLO
7340   14E2       1F7B                         ADC       _ACCEHI, _ACCBHI
7341   14E3       0F66                         LSL       _ACCELO
7342   14E4       1F77                         ROL       _ACCEHI
7343   14E5       8122                         LDD       _ACCALO, Z+2
7344   14E6       8107                         LDD       _ACCB, Z+7
7345   14E7       2711                         CLR       _ACCA
7346   14E8       0F02                         ADD       _ACCB, _ACCALO
7347   14E9       1F1B                         ADC       _ACCA, _ACCBHI
7348   14EA       D17E                         RCALL     SYSTEM._MUL6
7349   14EB       0F60                         ADD       _ACCELO, _ACCB
7350   14EC       1F71                         ADC       _ACCEHI, _ACCA
7351   14ED       8144                         LDD       _ACCDLO, Z+4
7352   14EE       2755                         CLR       _ACCDHI
7353   14EF       0F44                         LSL       _ACCDLO
7354   14F0       1F55                         ROL       _ACCDHI
7355   14F1       0F44                         LSL       _ACCDLO
7356   14F2       1F55                         ROL       _ACCDHI
7357   14F3       0F64                         ADD       _ACCELO, _ACCDLO
7358   14F4       1F75                         ADC       _ACCEHI, _ACCDHI
7359   14F5       8105                         LDD       _ACCB, Z+5
7360   14F6       2711                         CLR       _ACCA
7361   14F7       D186                         RCALL     SYSTEM._MUL8
7362   14F8       0F60                         ADD       _ACCELO, _ACCB
7363   14F9       1F71                         ADC       _ACCEHI, _ACCA
7364   14FA       5A6C                         SUBI      _ACCELO, 428 AND 0FFh
7365   14FB       4071                         SBCI      _ACCEHI, 428 SHRB 8
7366   14FC       836A                         STD       Y+2, _ACCELO
7367   14FD       837B                         STD       Y+3, _ACCEHI
7368   14FE       8162                         LDD       _ACCELO, Z+2
7369   14FF       2777                         CLR       _ACCEHI
7370   1500       8146                         LDD       _ACCDLO, Z+6
7371   1501       0F64                         ADD       _ACCELO, _ACCDLO
7372   1502       1F7B                         ADC       _ACCEHI, _ACCBHI
7373   1503       0F66                         LSL       _ACCELO
7374   1504       1F77                         ROL       _ACCEHI
7375   1505       8143                         LDD       _ACCDLO, Z+3
7376   1506       0F64                         ADD       _ACCELO, _ACCDLO
7377   1507       1F7B                         ADC       _ACCEHI, _ACCBHI
7378   1508       8104                         LDD       _ACCB, Z+4
7379   1509       2711                         CLR       _ACCA
7380   150A       8145                         LDD       _ACCDLO, Z+5
7381   150B       0F04                         ADD       _ACCB, _ACCDLO
7382   150C       1F1B                         ADC       _ACCA, _ACCBHI
7383   150D       D153                         RCALL     SYSTEM._MUL5
7384   150E       0F60                         ADD       _ACCELO, _ACCB
7385   150F       1F71                         ADC       _ACCEHI, _ACCA
7386   1510       8147                         LDD       _ACCDLO, Z+7
7387   1511       2755                         CLR       _ACCDHI
7388   1512       0F44                         LSL       _ACCDLO
7389   1513       1F55                         ROL       _ACCDHI
7390   1514       0F44                         LSL       _ACCDLO
7391   1515       1F55                         ROL       _ACCDHI
7392   1516       0F64                         ADD       _ACCELO, _ACCDLO
7393   1517       1F75                         ADC       _ACCEHI, _ACCDHI
7394   1518       516F                         SUBI      _ACCELO, 287 AND 0FFh
7395   1519       4071                         SBCI      _ACCEHI, 287 SHRB 8
7396   151A       836C                         STD       Y+4, _ACCELO
7397   151B       837D                         STD       Y+5, _ACCEHI
7398   151C       8163                         LDD       _ACCELO, Z+3
7399   151D       2777                         CLR       _ACCEHI
7400   151E       0F66                         LSL       _ACCELO
7401   151F       1F77                         ROL       _ACCEHI
7402   1520       0F66                         LSL       _ACCELO
7403   1521       1F77                         ROL       _ACCEHI
7404   1522       8104                         LDD       _ACCB, Z+4
7405   1523       2711                         CLR       _ACCA
7406   1524       8147                         LDD       _ACCDLO, Z+7
7407   1525       0F04                         ADD       _ACCB, _ACCDLO
7408   1526       1F1B                         ADC       _ACCA, _ACCBHI
7409   1527       D139                         RCALL     SYSTEM._MUL5
7410   1528       0F60                         ADD       _ACCELO, _ACCB
7411   1529       1F71                         ADC       _ACCEHI, _ACCA
7412   152A       8105                         LDD       _ACCB, Z+5
7413   152B       2711                         CLR       _ACCA
7414   152C       D151                         RCALL     SYSTEM._MUL8
7415   152D       0F60                         ADD       _ACCELO, _ACCB
7416   152E       1F71                         ADC       _ACCEHI, _ACCA
7417   152F       8106                         LDD       _ACCB, Z+6
7418   1530       2711                         CLR       _ACCA
7419   1531       D13F                         RCALL     SYSTEM._MUL7
7420   1532       0F60                         ADD       _ACCELO, _ACCB
7421   1533       1F71                         ADC       _ACCEHI, _ACCA
7422   1534       5B65                         SUBI      _ACCELO, 437 AND 0FFh
7423   1535       4071                         SBCI      _ACCEHI, 437 SHRB 8
7424   1536       836E                         STD       Y+6, _ACCELO
7425   1537       837F                         STD       Y+7, _ACCEHI
7426   1538       8165                         LDD       _ACCELO, Z+5
7427   1539       2777                         CLR       _ACCEHI
7428   153A       0F66                         LSL       _ACCELO
7429   153B       1F77                         ROL       _ACCEHI
7430   153C       0F66                         LSL       _ACCELO
7431   153D       1F77                         ROL       _ACCEHI
7432   153E       8104                         LDD       _ACCB, Z+4
7433   153F       2711                         CLR       _ACCA
7434   1540       D128                         RCALL     SYSTEM._MUL6
7435   1541       0F60                         ADD       _ACCELO, _ACCB
7436   1542       1F71                         ADC       _ACCEHI, _ACCA
7437   1543       8106                         LDD       _ACCB, Z+6
7438   1544       2711                         CLR       _ACCA
7439   1545       D12B                         RCALL     SYSTEM._MUL7
7440   1546       0F60                         ADD       _ACCELO, _ACCB
7441   1547       1F71                         ADC       _ACCEHI, _ACCA
7442   1548       8107                         LDD       _ACCB, Z+7
7443   1549       2711                         CLR       _ACCA
7444   154A       D110                         RCALL     SYSTEM._MUL3
7445   154B       0F60                         ADD       _ACCELO, _ACCB
7446   154C       1F71                         ADC       _ACCEHI, _ACCA
7447   154D       526F                         SUBI      _ACCELO, 303 AND 0FFh
7448   154E       4071                         SBCI      _ACCEHI, 303 SHRB 8
7449   154F       8768                         STD       Y+8, _ACCELO
7450   1550       8779                         STD       Y+9, _ACCEHI
7451   1551       8167                         LDD       _ACCELO, Z+7
7452   1552       2777                         CLR       _ACCEHI
7453   1553       0F66                         LSL       _ACCELO
7454   1554       1F77                         ROL       _ACCEHI
7455   1555       0F66                         LSL       _ACCELO
7456   1556       1F77                         ROL       _ACCEHI
7457   1557       8106                         LDD       _ACCB, Z+6
7458   1558       2711                         CLR       _ACCA
7459   1559       D117                         RCALL     SYSTEM._MUL7
7460   155A       0F60                         ADD       _ACCELO, _ACCB
7461   155B       1F71                         ADC       _ACCEHI, _ACCA
7462   155C       5A65                         SUBI      _ACCELO, 165 AND 0FFh
7463   155D       4070                         SBCI      _ACCEHI, 165 SHRB 8
7464   155E       876A                         STD       Y+10, _ACCELO
7465   155F       877B                         STD       Y+11, _ACCEHI
7466   1560       8165                         LDD       _ACCELO, Z+5
7467   1561       2777                         CLR       _ACCEHI
7468   1562       8106                         LDD       _ACCB, Z+6
7469   1563       2711                         CLR       _ACCA
7470   1564       D104                         RCALL     SYSTEM._MUL6
7471   1565       0F60                         ADD       _ACCELO, _ACCB
7472   1566       1F71                         ADC       _ACCEHI, _ACCA
7473   1567       8107                         LDD       _ACCB, Z+7
7474   1568       2711                         CLR       _ACCA
7475   1569       D114                         RCALL     SYSTEM._MUL8
7476   156A       0F60                         ADD       _ACCELO, _ACCB
7477   156B       1F71                         ADC       _ACCEHI, _ACCA
7478   156C       5E66                         SUBI      _ACCELO, 230 AND 0FFh
7479   156D       4070                         SBCI      _ACCEHI, 230 SHRB 8
7480   156E       876C                         STD       Y+12, _ACCELO
7481   156F       877D                         STD       Y+13, _ACCEHI
7482   1570       8166                         LDD       _ACCELO, Z+6
7483   1571       2777                         CLR       _ACCEHI
7484   1572       8107                         LDD       _ACCB, Z+7
7485   1573       2711                         CLR       _ACCA
7486   1574       D0F4                         RCALL     SYSTEM._MUL6
7487   1575       0F60                         ADD       _ACCELO, _ACCB
7488   1576       1F71                         ADC       _ACCEHI, _ACCA
7489   1577       5669                         SUBI      _ACCELO, 105 AND 0FFh
7490   1578       4070                         SBCI      _ACCEHI, 105 SHRB 8
7491   1579       876E                         STD       Y+14, _ACCELO
7492   157A       877F                         STD       Y+15, _ACCEHI
7493   157B       8167                         LDD       _ACCELO, Z+7
7494   157C       2777                         CLR       _ACCEHI
7495   157D       0F66                         LSL       _ACCELO
7496   157E       1F77                         ROL       _ACCEHI
7497   157F       5265                         SUBI      _ACCELO, 37 AND 0FFh
7498   1580       4070                         SBCI      _ACCEHI, 37 SHRB 8
7499   1581       8B68                         STD       Y+16, _ACCELO
7500   1582       8B79                         STD       Y+17, _ACCEHI
7501   1583       E065                         LDI       _ACCELO, 5
7502   1584       E070                         LDI       _ACCEHI, 0
7503   1585       8B6A                         STD       Y+18, _ACCELO
7504   1586       8B7B                         STD       Y+19, _ACCEHI
7505   1587       01FE                         MOVW      _ACCCLO, _FRAMEPTR
7506   1588       E019                         LDI       _ACCA, 9
7507   1589       8180                         LDD       R24, Z+0
7508   158A       8191                         LDD       R25, Z+1
7509   158B       81A2                         LDD       R26, Z+2
7510   158C       81B3                         LDD       R27, Z+3
7511   158D            SYSTEM._cv32_1:
7512   158D       2399                         TST       R25
7513   158E       F41A                         BRPL      SYSTEM._cv32_2
7514   158F       960A                         ADIW      R24, 10
7515   1590       9711                         SBIW      R26, 1
7516   1591       CFFB                         RJMP      SYSTEM._cv32_1
7517   1592            SYSTEM._cv32_2:
7518   1592       9381                         ST        Z+, R24
7519   1593       9391                         ST        Z+, R25
7520   1594       01CD                         MOVW      R24, R26
7521   1595       951A                         DEC       _ACCA
7522   1596       F019                         BREQ      SYSTEM._cv32_X
7523   1597       81A2                         LDD       R26, Z+2
7524   1598       81B3                         LDD       R27, Z+3
7525   1599       CFF3                         RJMP      SYSTEM._cv32_1
7526   159A            SYSTEM._cv32_X:
7527   159A       9381                         ST        Z+, R24
7528   159B       9391                         ST        Z+, R25
7529   159C       918F                         POP       _ACCFLO
7530   159D       01FE                         MOVW      _ACCCLO, _FRAMEPTR
7531   159E       01DE                         MOVW      _ACCBLO, _FRAMEPTR
7532   159F       FA54                         BST       Flags2, _F64StrInt
7533   15A0       F436                         BRTC      SYSTEM._L0542
7534   15A1       8D2E                         LDD       _ACCALO, Y+30
7535   15A2       E030                         LDI       _ACCAHI, 0
7536   15A3       8D4C                         LDD       _ACCDLO, Y+28
7537   15A4       E05A                         LDI       _ACCDHI, 10
7538   15A5       9697                         ADIW      XL, 39
7539   15A6       C00D                         RJMP      SYSTEM._L0544
7540   15A7            SYSTEM._L0542:
7541   15A7       FA55                         BST       Flags2, _F64StrFrac
7542   15A8       F436                         BRTC      SYSTEM._L0543
7543   15A9       E029                         LDI       _ACCALO, 9
7544   15AA       E030                         LDI       _ACCAHI, 0
7545   15AB       E340                         LDI       _ACCDLO, 30h
7546   15AC       E05A                         LDI       _ACCDHI, 10
7547   15AD       9697                         ADIW      XL, 39
7548   15AE       C005                         RJMP      SYSTEM._L0544
7549   15AF            SYSTEM._L0543:
7550   15AF       8D2E                         LDD       _ACCALO, Y+30
7551   15B0       8D3D                         LDD       _ACCAHI, Y+29
7552   15B1       8D4C                         LDD       _ACCDLO, Y+28
7553   15B2       E05A                         LDI       _ACCDHI, 10
7554   15B3       9693                         ADIW      XL, 35
7555   15B4            SYSTEM._L0544:
7556   15B4       D003                         RCALL     SYSTEM._B2STR
7557   15B5       91DF                         POP       _FPTRHI
7558   15B6       91CF                         POP       _FRAMEPTR
7559   15B7       9508                         RET
7560   15B8            
7561   15B8            SYSTEM._B2STR:
7562   15B8       93AF                         PUSH      _ACCBLO
7563   15B9       93BF                         PUSH      _ACCBHI
7564   15BA       911D                         LD        _ACCA, X+
7565   15BB       910D                         LD        _ACCB, X+
7566   15BC       916D                         LD        _ACCELO, X+
7567   15BD       01DF                         MOVW      _ACCBLO, _ACCCLO
7568   15BE       936A                         ST        -Y, _ACCELO
7569   15BF       930A                         ST        -Y, _ACCB
7570   15C0       931A                         ST        -Y, _ACCA
7571   15C1       2388                         TST       _ACCFLO
7572   15C2       F019                         BREQ       SYSTEM._B2STR_NM
7573   15C3       2322                         TST       _ACCALO
7574   15C4       F009                         BREQ       SYSTEM._B2STR_NM
7575   15C5       952A                         DEC       _ACCALO
7576   15C6            SYSTEM._B2STR_NM:
7577   15C6       2F65                         MOV       _ACCELO, _ACCDHI
7578   15C7       2F75                         MOV       _ACCEHI, _ACCDHI
7579   15C8       0F77                         LSL       _ACCEHI
7580   15C9       957A                         DEC       _ACCEHI
7581   15CA       2700                         CLR       _ACCB
7582   15CB       0FA7                         ADD       XL, _ACCEHI
7583   15CC       1FB0                         ADC       XH, _ACCB
7584   15CD            SYSTEM._B2STR_0:
7585   15CD       911E                         LD        _ACCA, -X
7586   15CE       2311                         TST       _ACCA
7587   15CF       F419                         BRNE       SYSTEM._B2STR_1
7588   15D0       9711                         SBIW      XL, 1
7589   15D1       956A                         DEC       _ACCELO
7590   15D2       F7D1                         BRNE       SYSTEM._B2STR_0
7591   15D3            SYSTEM._B2STR_1:
7592   15D3       2366                         TST       _ACCELO
7593   15D4       F411                         BRNE       SYSTEM._B2STR_2
7594   15D5       9611                         ADIW      XL, 1
7595   15D6       9563                         INC       _ACCELO
7596   15D7            SYSTEM._B2STR_2:
7597   15D7       9612                         ADIW      XL, 2
7598   15D8       2333                         TST       _ACCAHI
7599   15D9       F421                         BRNE       SYSTEM._B2STR_PNT
7600   15DA       2322                         TST       _ACCALO
7601   15DB       F009                         BREQ       SYSTEM._B2STR_3
7602   15DC       C045                         RJMP       SYSTEM._B2STR_FILL
7603   15DD            SYSTEM._B2STR_3:
7604   15DD       C057                         RJMP       SYSTEM._B2STR_WR
7605   15DE            SYSTEM._B2STR_PNT:
7606   15DE       2322                         TST       _ACCALO
7607   15DF       F009                         BREQ       SYSTEM._B2STR_PNTE0
7608   15E0       952A                         DEC       _ACCALO
7609   15E1            SYSTEM._B2STR_PNTE0:
7610   15E1       2700                         CLR       _ACCB
7611   15E2       01DF                         MOVW      _ACCBLO, _ACCCLO
7612   15E3       1735                         CP        _ACCAHI, _ACCDHI
7613   15E4       F480                         BRCC       SYSTEM._B2STR_PNTGT
7614   15E5       2F73                         MOV       _ACCEHI, _ACCAHI
7615   15E6       0F77                         LSL       _ACCEHI
7616   15E7       0FA7                         ADD       XL, _ACCEHI
7617   15E8       1FB0                         ADC       XH, _ACCB
7618   15E9       E21E                         LDI       _ACCA, DECIMALSEP
7619   15EA       931E                         ST        -X, _ACCA
7620   15EB       1736                         CP        _ACCAHI, _ACCELO
7621   15EC       F010                         BRCS       SYSTEM._B2STR_PNTE1
7622   15ED       2F63                         MOV       _ACCELO, _ACCAHI
7623   15EE       9563                         INC       _ACCELO
7624   15EF            SYSTEM._B2STR_PNTE1:
7625   15EF       2F76                         MOV       _ACCEHI, _ACCELO
7626   15F0       0F77                         LSL       _ACCEHI
7627   15F1       01DF                         MOVW      _ACCBLO, _ACCCLO
7628   15F2       0FA7                         ADD       XL, _ACCEHI
7629   15F3       1FB0                         ADC       XH, _ACCB
7630   15F4       C02D                         RJMP       SYSTEM._B2STR_FILL
7631   15F5            SYSTEM._B2STR_PNTGT:
7632   15F5       0FA7                         ADD       XL, _ACCEHI
7633   15F6       1FB0                         ADC       XH, _ACCB
7634   15F7       9611                         ADIW      XL, 1
7635   15F8       2F73                         MOV       _ACCEHI, _ACCAHI
7636   15F9       5F7E                         ADDI      _ACCEHI, 2
7637   15FA       1727                         CP        _ACCALO, _ACCEHI
7638   15FB       F020                         BRCS       SYSTEM._B2STR_PNTG0
7639   15FC       2F02                         MOV       _ACCB, _ACCALO
7640   15FD       1B07                         SUB       _ACCB, _ACCEHI
7641   15FE       9503                         INC       _ACCB
7642   15FF       C001                         RJMP       SYSTEM._B2STR_PNTG1
7643   1600            SYSTEM._B2STR_PNTG0:
7644   1600       2700                         CLR       _ACCB
7645   1601            SYSTEM._B2STR_PNTG1:
7646   1601       2F20                         MOV       _ACCALO, _ACCB
7647   1602            SYSTEM._B2STR_PNTG2:
7648   1602       2300                         TST       _ACCB
7649   1603       F029                         BREQ       SYSTEM._B2STR_PNTG3
7650   1604       2F14                         MOV       _ACCA, _ACCDLO
7651   1605   940E1701                         CALL      SYSTEM.Char2Str
7652   1607       950A                         DEC       _ACCB
7653   1608       CFF9                         RJMP       SYSTEM._B2STR_PNTG2
7654   1609            SYSTEM._B2STR_PNTG3:
7655   1609       2F73                         MOV       _ACCEHI, _ACCAHI
7656   160A       1B75                         SUB       _ACCEHI, _ACCDHI
7657   160B       2F65                         MOV       _ACCELO, _ACCDHI
7658   160C       0F27                         ADD       _ACCALO, _ACCEHI
7659   160D       2388                         TST       _ACCFLO
7660   160E       F029                         BREQ       SYSTEM._B2STR_PNTG4
7661   160F       2F18                         MOV       _ACCA, _ACCFLO
7662   1610   940E1701                         CALL      SYSTEM.Char2Str
7663   1612       2788                         CLR       _ACCFLO
7664   1613       9523                         INC       _ACCALO
7665   1614            SYSTEM._B2STR_PNTG4:
7666   1614       5F2E                         ADDI      _ACCALO, 2
7667   1615       E310                         LDI       _ACCA, 30h
7668   1616   940E1701                         CALL      SYSTEM.Char2Str
7669   1618       E21E                         LDI       _ACCA, DECIMALSEP
7670   1619   940E1701                         CALL      SYSTEM.Char2Str
7671   161B       E310                         LDI       _ACCA, 30h
7672   161C            SYSTEM._B2STR_PNTG5:
7673   161C       2377                         TST       _ACCEHI
7674   161D       F0B9                         BREQ       SYSTEM._B2STR_WR
7675   161E   940E1701                         CALL      SYSTEM.Char2Str
7676   1620       957A                         DEC       _ACCEHI
7677   1621       CFFA                         RJMP       SYSTEM._B2STR_PNTG5
7678   1622            SYSTEM._B2STR_FILL:
7679   1622       1762                         CP        _ACCELO, _ACCALO
7680   1623       F010                         BRCS       SYSTEM._B2STR_F0
7681   1624       2722                         CLR       _ACCALO
7682   1625       C00F                         RJMP       SYSTEM._B2STR_WR
7683   1626            SYSTEM._B2STR_F0:
7684   1626       1B26                         SUB       _ACCALO, _ACCELO
7685   1627       2F02                         MOV       _ACCB, _ACCALO
7686   1628       FA55                         BST       Flags2, _F64StrFrac
7687   1629       F436                         BRTC      SYSTEM._B2STR_F1
7688   162A       A168                         LDD       _ACCELO, Y+32
7689   162B            SYSTEM._B2STR_F3:
7690   162B       1760                         CP        _ACCELO, _ACCB
7691   162C       F408                         BRCC      SYSTEM._L0545
7692   162D       1B06                         SUB       _ACCB, _ACCELO
7693   162E            SYSTEM._L0545:
7694   162E       1B60                         SUB       _ACCELO, _ACCB
7695   162F       A368                         STD       Y+32, _ACCELO
7696   1630            SYSTEM._B2STR_F1:
7697   1630       2F14                         MOV       _ACCA, _ACCDLO
7698   1631   940E1701                         CALL      SYSTEM.Char2Str
7699   1633       950A                         DEC       _ACCB
7700   1634       F7D9                         BRNE       SYSTEM._B2STR_F1
7701   1635            SYSTEM._B2STR_WR:
7702   1635       FA55                         BST       Flags2, _F64StrFrac
7703   1636       F41E                         BRTC      SYSTEM._L0546
7704   1637       A168                         LDD       _ACCELO, Y+32
7705   1638            SYSTEM._B2STR_F2:
7706   1638       2366                         TST       _ACCELO
7707   1639       F081                         BREQ       SYSTEM._B2STR_WR2
7708   163A            SYSTEM._L0546:
7709   163A       2388                         TST       _ACCFLO
7710   163B       F019                         BREQ       SYSTEM._B2STR_WR0
7711   163C       2F18                         MOV       _ACCA, _ACCFLO
7712   163D   940E1701                         CALL      SYSTEM.Char2Str
7713   163F            SYSTEM._B2STR_WR0:
7714   163F       911E                         LD        _ACCA, -X
7715   1640       2311                         TST       _ACCA
7716   1641       F011                         BREQ       SYSTEM._B2STR_WR1
7717   1642   940E1701                         CALL      SYSTEM.Char2Str
7718   1644            SYSTEM._B2STR_WR1:
7719   1644       911E                         LD        _ACCA, -X
7720   1645       6310                         ORI       _ACCA, 30h
7721   1646   940E1701                         CALL      SYSTEM.Char2Str
7722   1648       956A                         DEC       _ACCELO
7723   1649       F7A9                         BRNE       SYSTEM._B2STR_WR0
7724   164A            SYSTEM._B2STR_WR2:
7725   164A       FA54                         BST       Flags2, _F64StrInt
7726   164B       F436                         BRTC      SYSTEM._L0547
7727   164C       A118                         LDD       _ACCA, Y+32
7728   164D            SYSTEM._B2STR_F4:
7729   164D       2311                         TST       _ACCA
7730   164E       F019                         BREQ       SYSTEM._L0547
7731   164F       E21E                         LDI       _ACCA, DECIMALSEP
7732   1650   940E1701                         CALL      SYSTEM.Char2Str
7733   1652            SYSTEM._L0547:
7734   1652       91BF                         POP       _ACCBHI
7735   1653       91AF                         POP       _ACCBLO
7736   1654       8118                         LDD        _ACCA, Y+0
7737   1655       931D                         ST         X+, _ACCA
7738   1656       8119                         LDD        _ACCA, Y+1
7739   1657       931D                         ST         X+, _ACCA
7740   1658       811A                         LDD        _ACCA, Y+2
7741   1659       931D                         ST         X+, _ACCA
7742   165A       9508                         RET
7743   165B            
7744   165B            SYSTEM._MUL3:
7745   165B       0198                         MOVW      _ACCALO, _ACCB
7746   165C       0F00                         LSL       _ACCB
7747   165D       1F11                         ROL       _ACCA
7748   165E       0F02                         ADD       _ACCB, _ACCALO
7749   165F       1F13                         ADC       _ACCA, _ACCAHI
7750   1660       9508                         RET
7751   1661            
7752   1661            SYSTEM._MUL5:
7753   1661       0198                         MOVW      _ACCALO, _ACCB
7754   1662       0F00                         LSL       _ACCB
7755   1663       1F11                         ROL       _ACCA
7756   1664       0F00                         LSL       _ACCB
7757   1665       1F11                         ROL       _ACCA
7758   1666       0F02                         ADD       _ACCB, _ACCALO
7759   1667       1F13                         ADC       _ACCA, _ACCAHI
7760   1668       9508                         RET
7761   1669            
7762   1669            SYSTEM._MUL6:
7763   1669       0F00                         LSL       _ACCB
7764   166A       1F11                         ROL       _ACCA
7765   166B       0198                         MOVW      _ACCALO, _ACCB
7766   166C       0F00                         LSL       _ACCB
7767   166D       1F11                         ROL       _ACCA
7768   166E       0F02                         ADD       _ACCB, _ACCALO
7769   166F       1F13                         ADC       _ACCA, _ACCAHI
7770   1670       9508                         RET
7771   1671            
7772   1671            SYSTEM._MUL7:
7773   1671       0198                         MOVW      _ACCALO, _ACCB
7774   1672       01A8                         MOVW      _ACCDLO, _ACCB
7775   1673       0F00                         LSL       _ACCB
7776   1674       1F11                         ROL       _ACCA
7777   1675       0F00                         LSL       _ACCB
7778   1676       1F11                         ROL       _ACCA
7779   1677       0F22                         LSL       _ACCALO
7780   1678       1F33                         ROL       _ACCAHI
7781   1679       0F02                         ADD       _ACCB, _ACCALO
7782   167A       1F13                         ADC       _ACCA, _ACCAHI
7783   167B       0F04                         ADD       _ACCB, _ACCDLO
7784   167C       1F15                         ADC       _ACCA, _ACCDHI
7785   167D       9508                         RET
7786   167E            
7787   167E            SYSTEM._MUL8:
7788   167E       0F00                         LSL       _ACCB
7789   167F       1F11                         ROL       _ACCA
7790   1680       0F00                         LSL       _ACCB
7791   1681       1F11                         ROL       _ACCA
7792   1682       0F00                         LSL       _ACCB
7793   1683       1F11                         ROL       _ACCA
7794   1684       9508                         RET
7795   1685            
7796   1685            
7797   1685            SYSTEM.Int2Str:
7798   1685       93CF                         PUSH      _FRAMEPTR
7799   1686       93DF                         PUSH      _FPTRHI
7800   1687       972A                         SBIW      _FRAMEPTR, 10
7801   1688       85AD                         LDD       XL, Y+13
7802   1689       85BE                         LDD       XH, Y+14
7803   168A       2788                         CLR       _ACCFLO
7804   168B       FA45                         BST       Flags, _SIGN
7805   168C       F43E                         BRTC      SYSTEM._cv16_0
7806   168D       23BB                         TST       XH
7807   168E       F42A                         BRPL      SYSTEM._cv16_0
7808   168F       E28D                         LDI       _ACCFLO, 2Dh
7809   1690       50A1                         SUBI      XL, 01h
7810   1691       40B0                         SBCI      XH, 00h
7811   1692       95A0                         COM       XL
7812   1693       95B0                         COM       XH
7813   1694            SYSTEM._cv16_0:
7814   1694       938F                         PUSH      _ACCFLO
7815   1695       2F8B                         mov       r24, XH
7816   1696       9582                         swap      r24
7817   1697       708F                         andi      r24, 0Fh
7818   1698       5180                         subi      r24, -0F0h and 0FFh
7819   1699       2F38                         mov       r19, r24
7820   169A       0F38                         add       r19, r24
7821   169B       518E                         subi      r24, -0E2h and 0ffh
7822   169C       2F28                         mov       r18, r24
7823   169D       5C8E                         subi      r24, -32h and 0ffh
7824   169E       2F08                         mov       r16, r24
7825   169F       2F8B                         mov       r24, XH
7826   16A0       708F                         andi      r24, 0Fh
7827   16A1       0F28                         add       r18, r24
7828   16A2       0F28                         add       r18, r24
7829   16A3       0F08                         add       r16, r24
7830   16A4       5187                         subi      r24, -0E9h and $ff
7831   16A5       2F18                         mov       r17, r24
7832   16A6       0F18                         add       r17, r24
7833   16A7       0F18                         add       r17, r24
7834   16A8       2F8A                         mov       r24, XL
7835   16A9       9582                         swap      r24
7836   16AA       708F                         andi      r24, 0Fh
7837   16AB       0F18                         add       r17, r24
7838   16AC       0F08                         add       r16, r24
7839   16AD       1F11                         rol       r17
7840   16AE       1F00                         rol       r16
7841   16AF       9500                         com       r16
7842   16B0       9488                         clc
7843   16B1       1F00                         rol       r16
7844   16B2       2F8A                         mov       r24, XL
7845   16B3       708F                         andi      r24, 0Fh
7846   16B4       0F08                         add       r16, r24
7847   16B5       1F33                         rol       r19
7848   16B6       E087                         ldi       r24, 07h
7849   16B7       2F48                         mov       r20, r24
7850   16B8       E08A                         ldi       r24, 0Ah
7851   16B9            SYSTEM._cv16_1:
7852   16B9       0F08                         add       r16,r24
7853   16BA       951A                         dec       r17
7854   16BB       F7E8                         brcc      SYSTEM._cv16_1
7855   16BC            SYSTEM._cv16_2:
7856   16BC       0F18                         add       r17, r24
7857   16BD       952A                         dec       r18
7858   16BE       F7E8                         brcc      SYSTEM._cv16_2
7859   16BF            SYSTEM._cv16_3:
7860   16BF       0F28                         add       r18, r24
7861   16C0       953A                         dec       r19
7862   16C1       F7E8                         brcc      SYSTEM._cv16_3
7863   16C2            SYSTEM._cv16_4:
7864   16C2       0F38                         add       r19, r24
7865   16C3       954A                         dec       r20
7866   16C4       F7E8                         brcc      SYSTEM._cv16_4
7867   16C5            SYSTEM._cv16_5:
7868   16C5       01DE                         MOVW      _ACCBLO, _FRAMEPTR
7869   16C6       27FF                         clr       ZH
7870   16C7       E1E0                         ldi       ZL, 16
7871   16C8       E095                         ldi       r25, 5
7872   16C9       E070                         ldi       r23, 0
7873   16CA            SYSTEM._cv16_6:
7874   16CA       9181                         ld        r24, Z+
7875   16CB       938D                         st        X+, r24
7876   16CC       937D                         st        X+, r23
7877   16CD       959A                         dec       r25
7878   16CE       F7D9                         brne      SYSTEM._cv16_6
7879   16CF       852C                         LDD       _ACCALO, Y+12
7880   16D0       853B                         LDD       _ACCAHI, Y+11
7881   16D1       854A                         LDD       _ACCDLO, Y+10
7882   16D2       E055                         LDI       _ACCDHI, 5
7883   16D3       918F                         POP       _ACCFLO
7884   16D4       01FE                         MOVW      _ACCCLO, _FRAMEPTR
7885   16D5       01DE                         MOVW      _ACCBLO, _FRAMEPTR
7886   16D6       961F                         ADIW      XL, 15
7887   16D7       DEE0                         RCALL     SYSTEM._B2STR
7888   16D8       91DF                         POP       _FPTRHI
7889   16D9       91CF                         POP       _FRAMEPTR
7890   16DA       9508                         RET
7891   16DB            
7892   16DB            
7893   16DB            SYSTEM.StringComp:
7894   16DB       910D                         LD        _ACCB, X+
7895   16DC       FC44                         SBRC      FLAGS, _STRCONST
7896   16DD       C002                         RJMP      SYSTEM._L0548
7897   16DE       9001                         LD        _ACCGLO, Z+
7898   16DF       C001                         RJMP      SYSTEM._L0549
7899   16E0            SYSTEM._L0548:
7900   16E0       9005                         LPM       _ACCGLO, Z+
7901   16E1            SYSTEM._L0549:
7902   16E1       1500                         CP        _ACCB, _ACCGLO
7903   16E2       F011                         BREQ      SYSTEM._L0550
7904   16E3       9498                         CLZ
7905   16E4       9508                         RET
7906   16E5            SYSTEM._L0550:
7907   16E5       2300                         TST       _ACCB
7908   16E6       F411                         BRNE      SYSTEM._L0551
7909   16E7       9418                         SEZ
7910   16E8       9508                         RET
7911   16E9            SYSTEM._L0551:
7912   16E9       950A                         DEC       _ACCB
7913   16EA       911D                         LD        _ACCA, X+
7914   16EB       FC44                         SBRC      FLAGS, _STRCONST
7915   16EC       C002                         RJMP      SYSTEM._L0552
7916   16ED       9001                         LD        _ACCGLO, Z+
7917   16EE       C001                         RJMP      SYSTEM._L0553
7918   16EF            SYSTEM._L0552:
7919   16EF       9005                         LPM       _ACCGLO, Z+
7920   16F0            SYSTEM._L0553:
7921   16F0       1510                         CP        _ACCA, _ACCGLO
7922   16F1       F399                         BREQ      SYSTEM._L0550
7923   16F2       9498                         CLZ
7924   16F3       9508                         RET
7925   16F4            
7926   16F4            
7927   16F4            SYSTEM.Hex2Str8:
7928   16F4       E0B2                         LDI       _ACCBHI, 2
7929   16F5            SYSTEM._L0554:
7930   16F5       9542                         SWAP      _ACCDLO
7931   16F6       2F14                         MOV       _ACCA, _ACCDLO
7932   16F7       701F                         ANDI      _ACCA, 0Fh
7933   16F8       301A                         CPI       _ACCA, 010
7934   16F9       F008                         BRCS      SYSTEM._L0555
7935   16FA       5F19                         ADDI      _ACCA, 7
7936   16FB            SYSTEM._L0555:
7937   16FB       5D10                         ADDI      _ACCA, 30h
7938   16FC   940E1701                         CALL      SYSTEM.Char2Str
7939   16FE       95BA                         DEC       _ACCBHI
7940   16FF       F7A9                         BRNE      SYSTEM._L0554
7941   1700       9508                         RET
7942   1701            
7943   1701            
7944   1701            SYSTEM.Char2Str:
7945   1701       93EF                         PUSH      _ACCCLO
7946   1702       93FF                         PUSH      _ACCCHI
7947   1703       FA43                         BST       Flags, _DEVICE
7948   1704       F0DE                         BRTS      SYSTEM._L0560
7949   1705       931F                         PUSH      _ACCA
7950   1706       81E9                         LDD       _ACCCLO, Y+001h
7951   1707       81FA                         LDD       _ACCCHI, Y+002h
7952   1708       8118                         LDD       _ACCA, Y+000h
7953   1709       2311                         TST       _ACCA
7954   170A       F431                         BRNE      SYSTEM._L0557
7955   170B       911F                         POP       _ACCA
7956   170C       9468                         SET
7957   170D       F841                         BLD       Flags, _ERRFLAG
7958   170E       91FF                         POP       _ACCCHI
7959   170F       91EF                         POP       _ACCCLO
7960   1710       9508                         RET
7961   1711            SYSTEM._L0557:
7962   1711       951A                         DEC       _ACCA
7963   1712       8318                         STD       Y+000h, _ACCA
7964   1713       911F                         POP       _ACCA
7965   1714       FA46                         BST       Flags, _EEPROM
7966   1715       F016                         BRTS      SYSTEM._L0558
7967   1716       9311                         ST        Z+, _ACCA
7968   1717       C003                         RJMP      SYSTEM._L0559
7969   1718            SYSTEM._L0558:
7970   1718   940E12A3                         CALL      SYSTEM.WriteEEp8
7971   171A       9631                         ADIW      _ACCCLO, 01h
7972   171B            SYSTEM._L0559:
7973   171B       83FA                         STD       Y+002h, _ACCCHI
7974   171C       83E9                         STD       Y+001h, _ACCCLO
7975   171D       91FF                         POP       _ACCCHI
7976   171E       91EF                         POP       _ACCCLO
7977   171F       9508                         RET
7978   1720            SYSTEM._L0560:
7979   1720       81E8                         LDD       _ACCCLO, Y+000h
7980   1721       81F9                         LDD       _ACCCHI, Y+001h
7981   1722       931F                         PUSH      _ACCA
7982   1723       930F                         PUSH      _ACCB
7983   1724       932F                         PUSH      _ACCALO
7984   1725       933F                         PUSH      _ACCAHI
7985   1726       93AF                         PUSH      _ACCBLO
7986   1727       93BF                         PUSH      _ACCBHI
7987   1728       936F                         PUSH      _ACCELO
7988   1729       937F                         PUSH      _ACCEHI
7989   172A       934F                         PUSH      _ACCDLO
7990   172B       935F                         PUSH      _ACCDHI
7991   172C       938F                         PUSH      _ACCFLO
7992   172D       939F                         PUSH      _ACCFHI
7993   172E       9509                         ICALL
7994   172F       919F                         POP       _ACCFHI
7995   1730       918F                         POP       _ACCFLO
7996   1731       915F                         POP       _ACCDHI
7997   1732       914F                         POP       _ACCDLO
7998   1733       917F                         POP       _ACCEHI
7999   1734       916F                         POP       _ACCELO
8000   1735       91BF                         POP       _ACCBHI
8001   1736       91AF                         POP       _ACCBLO
8002   1737       913F                         POP       _ACCAHI
8003   1738       912F                         POP       _ACCALO
8004   1739       910F                         POP       _ACCB
8005   173A       911F                         POP       _ACCA
8006   173B       91FF                         POP       _ACCCHI
8007   173C       91EF                         POP       _ACCCLO
8008   173D       9508                         RET
8009   173E            
8010   173E            
8011   173E            SYSTEM.MUL16:
8012   173E       0198                         MOVW      _ACCALO, _ACCB
8013   173F       2744                         CLR       _ACCDLO
8014   1740       FA45                         BST       Flags, _SIGN
8015   1741       F486                         BRTC      SYSTEM.MUL16_G
8016   1742       01BD                         MOVW      _ACCELO, _ACCBLO
8017   1743       0237                         MULS      _ACCAHI, _ACCEHI
8018   1744       01F0                         MOVW      _ACCCLO, _ACCGLO
8019   1745       9F26                         MUL       _ACCALO, _ACCELO
8020   1746       0180                         MOVW      _ACCB, _ACCGLO
8021   1747       0336                         MULSU     _ACCAHI, _ACCELO
8022   1748       0BF4                         SBC       _ACCCHI, _ACCDLO
8023   1749       0D10                         ADD       _ACCA, _ACCGLO
8024   174A       1DE1                         ADC       _ACCCLO, _ACCGHI
8025   174B       1FF4                         ADC       _ACCCHI, _ACCDLO
8026   174C       0372                         MULSU     _ACCEHI, _ACCALO
8027   174D       0BF4                         SBC       _ACCCHI, _ACCDLO
8028   174E       0D10                         ADD       _ACCA, _ACCGLO
8029   174F       1DE1                         ADC       _ACCCLO, _ACCGHI
8030   1750       1FF4                         ADC       _ACCCHI, _ACCDLO
8031   1751       9508                         RET
8032   1752            
8033   1752            SYSTEM.MUL16_G:
8034   1752       9F3B                         MUL       _ACCAHI, _ACCBHI
8035   1753       01F0                         MOVW      _ACCCLO, _ACCGLO
8036   1754       9F2A                         MUL       _ACCALO, _ACCBLO
8037   1755       0180                         MOVW      _ACCB, _ACCGLO
8038   1756       9F3A                         MUL       _ACCAHI, _ACCBLO
8039   1757       0D10                         ADD       _ACCA, _ACCGLO
8040   1758       1DE1                         ADC       _ACCCLO, _ACCGHI
8041   1759       1FF4                         ADC       _ACCCHI, _ACCDLO
8042   175A       9F2B                         MUL       _ACCALO, _ACCBHI
8043   175B       0D10                         ADD       _ACCA, _ACCGLO
8044   175C       1DE1                         ADC       _ACCCLO, _ACCGHI
8045   175D       1FF4                         ADC       _ACCCHI, _ACCDLO
8046   175E       9508                         RET
8047   175F            
8048   175F            
8049   175F            SYSTEM.DIV16:
8050   175F       0198                         MOVW      _ACCALO, _ACCB
8051   1760            SYSTEM.DIV16_R:
8052   1760       2755                         CLR       _ACCDHI
8053   1761       FA45                         BST       Flags, _SIGN
8054   1762       F496                         BRTC      SYSTEM._L0562
8055   1763       2F5B                         MOV       _ACCDHI, _ACCBHI
8056   1764       2F43                         MOV       _ACCDLO, _ACCAHI
8057   1765       274B                         EOR       _ACCDLO, _ACCBHI
8058   1766       94E8                         CLT
8059   1767       FF47                         SBRS      _ACCDLO, 7
8060   1768       F845                         BLD       Flags, _SIGN
8061   1769       FF37                         SBRS      _ACCAHI, 7
8062   176A       C004                         RJMP      SYSTEM._L0564
8063   176B       9521                         NEG       _ACCALO
8064   176C       F409                         BRNE      SYSTEM._L0565
8065   176D       953A                         DEC       _ACCAHI
8066   176E            SYSTEM._L0565:
8067   176E       9530                         COM       _ACCAHI
8068   176F            SYSTEM._L0564:
8069   176F       FFB7                         SBRS      _ACCBHI, 7
8070   1770       C004                         RJMP      SYSTEM._L0562
8071   1771       95A1                         NEG       _ACCBLO
8072   1772       F409                         BRNE      SYSTEM._L0566
8073   1773       95BA                         DEC       _ACCBHI
8074   1774            SYSTEM._L0566:
8075   1774       95B0                         COM       _ACCBHI
8076   1775            SYSTEM._L0562:
8077   1775       27EE                         CLR       _ACCCLO
8078   1776       1BFF                         SUB       _ACCCHI, _ACCCHI
8079   1777       E111                         LDI       _ACCA, 17
8080   1778            SYSTEM._L0567:
8081   1778       1FAA                         ROL       _ACCBLO
8082   1779       1FBB                         ROL       _ACCBHI
8083   177A       951A                         DEC       _ACCA
8084   177B       F441                         BRNE      SYSTEM._L0568
8085   177C       018D                         MOVW      _ACCB, _ACCBLO
8086   177D       FA45                         BST       Flags, _SIGN
8087   177E       F426                         BRTC      SYSTEM._L0563
8088   177F       9501                         NEG       _ACCB
8089   1780       F409                         BRNE      SYSTEM._L0570
8090   1781       951A                         DEC       _ACCA
8091   1782            SYSTEM._L0570:
8092   1782       9510                         COM       _ACCA
8093   1783            SYSTEM._L0563:
8094   1783       9508                         RET
8095   1784            SYSTEM._L0568:
8096   1784       1FEE                         ROL       _ACCCLO
8097   1785       1FFF                         ROL       _ACCCHI
8098   1786       1BE2                         SUB       _ACCCLO, _ACCALO
8099   1787       0BF3                         SBC       _ACCCHI, _ACCAHI
8100   1788       F420                         BRCC      SYSTEM._L0569
8101   1789       0FE2                         ADD       _ACCCLO, _ACCALO
8102   178A       1FF3                         ADC       _ACCCHI, _ACCAHI
8103   178B       9488                         CLC
8104   178C       CFEB                         RJMP      SYSTEM._L0567
8105   178D            SYSTEM._L0569:
8106   178D       9408                         SEC
8107   178E       CFE9                         RJMP      SYSTEM._L0567
8108   178F            
8109   178F            
8110   178F            SYSTEM.SHL32:
8111   178F       23EE                         TST       _ACCCLO
8112   1790       F069                         BREQ      SYSTEM._L0572
8113   1791       32E0                         CPI       _ACCCLO, 20h
8114   1792       F028                         BRCS      SYSTEM._L0571
8115   1793       2711                         CLR       _ACCA
8116   1794       2700                         CLR       _ACCB
8117   1795       2722                         CLR       _ACCALO
8118   1796       2733                         CLR       _ACCAHI
8119   1797       9508                         RET
8120   1798            SYSTEM._L0571:
8121   1798       0F00                         LSL       _ACCB
8122   1799       1F11                         ROL       _ACCA
8123   179A       1F22                         ROL       _ACCALO
8124   179B       1F33                         ROL       _ACCAHI
8125   179C       95EA                         DEC       _ACCCLO
8126   179D       F7D1                         BRNE      SYSTEM._L0571
8127   179E            SYSTEM._L0572:
8128   179E       9508                         RET
8129   179F            
8130   179F            
8131   179F            SYSTEM.High16i:
8132   179F       171B                         CP        _ACCA, _ACCBHI
8133   17A0       F02C                         BRLT      SYSTEM._L0573
8134   17A1       F449                         BRNE      SYSTEM._L0574
8135   17A2       170A                         CP        _ACCB, _ACCBLO
8136   17A3       F010                         BRLO      SYSTEM._L0573
8137   17A4       F431                         BRNE      SYSTEM._L0574
8138   17A5       C006                         RJMP      SYSTEM._L0575
8139   17A6            SYSTEM._L0573:
8140   17A6       9553                         INC       _ACCDHI
8141   17A7       FA42                         BST       Flags, _NEGATIVE
8142   17A8       F00E                         BRTS      SYSTEM._L0576
8143   17A9       018D                         MOVW      _ACCB, _ACCBLO
8144   17AA            SYSTEM._L0576:
8145   17AA       C001                         RJMP      SYSTEM._L0575
8146   17AB            SYSTEM._L0574:
8147   17AB       955A                         DEC       _ACCDHI
8148   17AC            SYSTEM._L0575:
8149   17AC       9508                         RET
8150   17AD            
8151   17AD            SYSTEM.DefIntErr:
8152   17AD       9518                         RETI
8153   17AE            
8154   17AE            
8155   17AE                                    .ROMCONST $
8156   17AE            
8157   17AE                                    ; ============ String-constant tables ============
8158   17AE                                    .SYM      NoisePlayer.Vers1Str
8159   17AE            NoisePlayer.Vers1Str:
8160   17AE         1E                         .BYTE     30
8161   17AE 312E303020                         .ASCII    "1.00 [NOISEPLAY by CM 11/2011]"
8162   17BD            
8163   17BD            $St_String2:
8164   17BD         03                         .BYTE     3
8165   17BE     23303A                         .ASCII    "#0:"
8166   17BF            
8167   17BF            $St_String3:
8168   17BF         13                         .BYTE     19
8169   17C0 2D31205B58                         .ASCII    "-1 [XMODEM Timeout]"
8170   17C9            
8171   17C9            $St_String4:
8172   17C9         1A                         .BYTE     26
8173   17CA 2D31205B58                         .ASCII    "-1 [XMODEM Checksum Error]"
8174   17D7            
8175   17D7            $St_String5:
8176   17D7         15                         .BYTE     21
8177   17D7 2D37205B44                         .ASCII    "-7 [DF Verify Error: "
8178   17E2            
8179   17E2            $St_String6:
8180   17E2         10                         .BYTE     16
8181   17E2 204572726F                         .ASCII    " Errors occured]"
8182   17EA            
8183   17EA            $St_String7:
8184   17EA         14                         .BYTE     20
8185   17EB 2D37205B44                         .ASCII    "-7 [DF Write Error: "
8186   17F5            
8187   17F5            $St_String8:
8188   17F5         17                         .BYTE     23
8189   17F5 2D36205B44                         .ASCII    "-6 [DF Protected Error]"
8190   1801            
8191   1801            $St_String9:
8192   1801         18                         .BYTE     24
8193   1801 2D34205B44                         .ASCII    "-4 [DF BlockErase Error]"
8194   180D            
8195   180D            $St_String10:
8196   180D         17                         .BYTE     23
8197   180E 2D33205B44                         .ASCII    "-3 [DF FullErase Error]"
8198   1819            
8199   1819            $St_String11:
8200   1819         00                         .BYTE     0
8201   181A            
8202   181A            
8203   181A                                    ; ============ array-constant tables ============
8204   181A                                    .SYM      NoisePlayer.ErrStrArr
8205   181A            NoisePlayer.ErrStrArr:
8206   181A         04                         .BYTE     4
8207   181A   5B4F4B5D                         .ASCII    "[OK]"
8208   181C         00                         .BYTE     00h
8209   181D         00                         .BYTE     00h
8210   181D         00                         .BYTE     00h
8211   181E         00                         .BYTE     00h
8212   181E            
8213   181E         05                         .BYTE     5
8214   181F 5B5553525D                         .ASCII    "[USR]"
8215   1821         00                         .BYTE     00h
8216   1822         00                         .BYTE     00h
8217   1822         00                         .BYTE     00h
8218   1823            
8219   1823         06                         .BYTE     6
8220   1823 5B42555359                         .ASCII    "[BUSY]"
8221   1826         00                         .BYTE     00h
8222   1827         00                         .BYTE     00h
8223   1827            
8224   1827         06                         .BYTE     6
8225   1828 5B46494C45                         .ASCII    "[FILE]"
8226   182B         00                         .BYTE     00h
8227   182B         00                         .BYTE     00h
8228   182C            
8229   182C         08                         .BYTE     8
8230   182C 5B434D4445                         .ASCII    "[CMDERR]"
8231   1830            
8232   1830         08                         .BYTE     8
8233   1831 5B50415245                         .ASCII    "[PARERR]"
8234   1835            
8235   1835         08                         .BYTE     8
8236   1835 5B4C4F434B                         .ASCII    "[LOCKED]"
8237   1839            
8238   1839         08                         .BYTE     8
8239   183A 5B43484B53                         .ASCII    "[CHKSUM]"
8240   183E            
8241   183E         06                         .BYTE     6
8242   183E 5B46504741                         .ASCII    "[FPGA]"
8243   1841         00                         .BYTE     00h
8244   1842         00                         .BYTE     00h
8245   1842            
8246   1842         07                         .BYTE     7
8247   1843 5B44464552                         .ASCII    "[DFERR]"
8248   1846         00                         .BYTE     00h
8249   1847            
8250   1847            
8251   1847                                    .SYM      NoisePlayer.CmdStrArr
8252   1847            NoisePlayer.CmdStrArr:
8253   1847         03                         .BYTE     3
8254   1847     535452                         .ASCII    "STR"
8255   1849            
8256   1849         03                         .BYTE     3
8257   1849     49444E                         .ASCII    "IDN"
8258   184B            
8259   184B         03                         .BYTE     3
8260   184B     534442                         .ASCII    "SDB"
8261   184D            
8262   184D         03                         .BYTE     3
8263   184D     53444C                         .ASCII    "SDL"
8264   184F            
8265   184F         03                         .BYTE     3
8266   184F     534445                         .ASCII    "SDE"
8267   1851            
8268   1851         03                         .BYTE     3
8269   1851     504C59                         .ASCII    "PLY"
8270   1853            
8271   1853         03                         .BYTE     3
8272   1853     535450                         .ASCII    "STP"
8273   1855            
8274   1855         03                         .BYTE     3
8275   1855     444653                         .ASCII    "DFS"
8276   1857            
8277   1857         03                         .BYTE     3
8278   1857     444658                         .ASCII    "DFX"
8279   1859            
8280   1859         03                         .BYTE     3
8281   1859     444645                         .ASCII    "DFE"
8282   185B            
8283   185B         03                         .BYTE     3
8284   185B     525354                         .ASCII    "RST"
8285   185D            
8286   185D         03                         .BYTE     3
8287   185D     57454E                         .ASCII    "WEN"
8288   185F            
8289   185F         03                         .BYTE     3
8290   185F     455243                         .ASCII    "ERC"
8291   1861            
8292   1861         03                         .BYTE     3
8293   1861     534244                         .ASCII    "SBD"
8294   1863            
8295   1863         03                         .BYTE     3
8296   1863     52454D                         .ASCII    "REM"
8297   1865            
8298   1865         03                         .BYTE     3
8299   1865     4E4F50                         .ASCII    "NOP"
8300   1867            
8301   1867            
8302   1867                                    .SYM      NoisePlayer.Cmd2SubChArr
8303   1867            NoisePlayer.Cmd2SubChArr:
8304   1867       00FF                         .WORD     000FFh
8305   1868       00FE                         .WORD     000FEh
8306   1869       0000                         .WORD     00000h
8307   186A       000A                         .WORD     0000Ah
8308   186B       0014                         .WORD     00014h
8309   186C       001E                         .WORD     0001Eh
8310   186D       0028                         .WORD     00028h
8311   186E       26C0                         .WORD     026C0h
8312   186F       26CA                         .WORD     026CAh
8313   1870       26D4                         .WORD     026D4h
8314   1871       270F                         .WORD     0270Fh
8315   1872       00FA                         .WORD     000FAh
8316   1873       00FB                         .WORD     000FBh
8317   1874       00FC                         .WORD     000FCh
8318   1875       00FD                         .WORD     000FDh
8319   1876       00FD                         .WORD     000FDh
8320   1877            
8321   1877            
8322   1877                                    ; ============ Fixed addr String-constant tables ============
8323   1877            
8324   1877                                    ; ============ fixed addr array-constant tables ============
8325   1877            
8326   1877                                    ; ++++++++++++++++++++++++++++++++++++++++++++++++++++++++++
8327   1877                                    ; Reset and Interrupt vectors
8328   1877                                    ; ++++++++++++++++++++++++++++++++++++++++++++++++++++++++++
8329   1877            
8330   1877            
8331   1877                                    .ENDCODE
8332   1877            SYSTEM.ENDCODE:
8333   0000                                    .ORG       000000h, VECTTAB
8334   0000                                    .VECTTAB
8335   0000            SYSTEM.VectTab:
8336   0000   940C114A                         JMP       SYSTEM.RESET
8337   0002   940C17AD                         JMP       SYSTEM.DefIntErr
8338   0004   940C17AD                         JMP       SYSTEM.DefIntErr
8339   0006   940C17AD                         JMP       SYSTEM.DefIntErr
8340   0008   940C17AD                         JMP       SYSTEM.DefIntErr
8341   000A   940C17AD                         JMP       SYSTEM.DefIntErr
8342   000C   940C17AD                         JMP       SYSTEM.DefIntErr
8343   000E   940C17AD                         JMP       SYSTEM.DefIntErr
8344   0010   940C17AD                         JMP       SYSTEM.DefIntErr
8345   0012   940C17AD                         JMP       SYSTEM.DefIntErr
8346   0014   940C17AD                         JMP       SYSTEM.DefIntErr
8347   0016   940C17AD                         JMP       SYSTEM.DefIntErr
8348   0018   940C17AD                         JMP       SYSTEM.DefIntErr
8349   001A   940C17AD                         JMP       SYSTEM.DefIntErr
8350   001C   940C17AD                         JMP       SYSTEM.DefIntErr
8351   001E   940C17AD                         JMP       SYSTEM.DefIntErr
8352   0020   940C11A5                         JMP       SYSTEM.$INTERRUPT_TIMER0
8353   0022   940C17AD                         JMP       SYSTEM.DefIntErr
8354   0024   940C11F4                         JMP       SYSTEM.$INTERRUPT_RXRDY
8355   0026   940C11C2                         JMP       SYSTEM.$INTERRUPT_TXEMPTY
8356   0028   940C17AD                         JMP       SYSTEM.DefIntErr
8357   002A   940C17AD                         JMP       SYSTEM.DefIntErr
8358   002C   940C17AD                         JMP       SYSTEM.DefIntErr
8359   002E   940C17AD                         JMP       SYSTEM.DefIntErr
8360   0030   940C17AD                         JMP       SYSTEM.DefIntErr
8361   0032   940C17AD                         JMP       SYSTEM.DefIntErr
8362   0034            
8363   0034                                    .VECTTABE
8364   0034            SYSTEM.ENDPROG:
8365   0034            
8366   0000                                    .END
8367   0000            
8368   0000                                    ; ============ End of Program ============
8369   0000            
8370   0000            
8371   0000                                    ; System uses registers
8372   0000                                    ; from bottom     = 00000h
8373   0000                                    ; upto            = 00006h
8374   0000                                    ; and
8375   0000                                    ; from            = 00010h
8376   0000                                    ; upto            = 0001Fh
8377   0000                                    ;
8378   0000                                    ; Stackframe at   = ...0046Bh
8379   0000            
8380   0000            
8381   0000                                    ; ===== Current top of User Vars in Data is 0000Ch =====
8382   0000            
8383   0000                                    ; ===== Current top of User Vars in IData is 004ABh =====
8384   0000            
8385   0000                                    ; ===== Current top of User Vars in EEprom is 0005Fh =====
8386   0000            
8387   0000            
8388   0000                                    ; ===== Imported Library Routines =====
8389   0000            
8390   0000                                    ; Multiply     word MUL16
8391   0000                                    ; Divide       word DIV16
8392   0000                                    ; Higher int
8393   0000                                    ; LongWord and LongInt types
8394   0000                                    ; Shift  left  long SHL32
8395   0000                                    ; Convert to hex string HexStr
8396   0000                                    ; Convert byte to string
8397   0000                                    ; Convert int to string
8398   0000                                    ; Convert long to string
8399   0000                                    ; Convert string to int
8400   0000                                    ; String compare
8401   0000                                    ; Copy partial String
8402   0000                                    ; EEprom read
8403   0000                                    ; EEprom write
8404   0000            
8405   0000                                    ; Pascal Statements : 485
8406   0000                                    ; Assembler Lines   : 16890
8407   0000                                    ; Optimizer removed : 400 lines = 800Bytes
8408   0000            
8409   0000                                    ; >> real SysTick (exact): 2.000 msec <<
8410   0000            
